	.section	__TEXT,__text,regular,pure_instructions
	.build_version macos, 13, 0	sdk_version 13, 3
	.globl	__Z8printRefR7Student           ## -- Begin function _Z8printRefR7Student
	.p2align	4, 0x90
__Z8printRefR7Student:                  ## @_Z8printRefR7Student
	.cfi_startproc
## %bb.0:
	pushq	%rbp
	.cfi_def_cfa_offset 16
	.cfi_offset %rbp, -16
	movq	%rsp, %rbp
	.cfi_def_cfa_register %rbp
	subq	$16, %rsp
	movq	%rdi, -8(%rbp)
	movq	__ZNSt3__14coutE@GOTPCREL(%rip), %rdi
	leaq	L_.str(%rip), %rsi
	callq	__ZNSt3__1lsINS_11char_traitsIcEEEERNS_13basic_ostreamIcT_EES6_PKc
	movq	%rax, %rdi
	movq	__ZNSt3__14endlIcNS_11char_traitsIcEEEERNS_13basic_ostreamIT_T0_EES7_@GOTPCREL(%rip), %rsi
	callq	__ZNSt3__113basic_ostreamIcNS_11char_traitsIcEEElsB6v15006EPFRS3_S4_E
	movq	__ZNSt3__14coutE@GOTPCREL(%rip), %rdi
	leaq	L_.str.1(%rip), %rsi
	callq	__ZNSt3__1lsINS_11char_traitsIcEEEERNS_13basic_ostreamIcT_EES6_PKc
	movq	%rax, %rdi
	movl	$24, %esi
	callq	__ZNSt3__113basic_ostreamIcNS_11char_traitsIcEEElsEm
	movq	%rax, %rdi
	movq	__ZNSt3__14endlIcNS_11char_traitsIcEEEERNS_13basic_ostreamIT_T0_EES7_@GOTPCREL(%rip), %rsi
	callq	__ZNSt3__113basic_ostreamIcNS_11char_traitsIcEEElsB6v15006EPFRS3_S4_E
	movq	__ZNSt3__14coutE@GOTPCREL(%rip), %rdi
	leaq	L_.str.2(%rip), %rsi
	callq	__ZNSt3__1lsINS_11char_traitsIcEEEERNS_13basic_ostreamIcT_EES6_PKc
	movq	%rax, %rdi
	movl	$24, %esi
	callq	__ZNSt3__113basic_ostreamIcNS_11char_traitsIcEEElsEm
	movq	%rax, %rdi
	movq	__ZNSt3__14endlIcNS_11char_traitsIcEEEERNS_13basic_ostreamIT_T0_EES7_@GOTPCREL(%rip), %rsi
	callq	__ZNSt3__113basic_ostreamIcNS_11char_traitsIcEEElsB6v15006EPFRS3_S4_E
	addq	$16, %rsp
	popq	%rbp
	retq
	.cfi_endproc
                                        ## -- End function
	.globl	__ZNSt3__1lsINS_11char_traitsIcEEEERNS_13basic_ostreamIcT_EES6_PKc ## -- Begin function _ZNSt3__1lsINS_11char_traitsIcEEEERNS_13basic_ostreamIcT_EES6_PKc
	.weak_definition	__ZNSt3__1lsINS_11char_traitsIcEEEERNS_13basic_ostreamIcT_EES6_PKc
	.p2align	4, 0x90
__ZNSt3__1lsINS_11char_traitsIcEEEERNS_13basic_ostreamIcT_EES6_PKc: ## @_ZNSt3__1lsINS_11char_traitsIcEEEERNS_13basic_ostreamIcT_EES6_PKc
	.cfi_startproc
## %bb.0:
	pushq	%rbp
	.cfi_def_cfa_offset 16
	.cfi_offset %rbp, -16
	movq	%rsp, %rbp
	.cfi_def_cfa_register %rbp
	subq	$32, %rsp
	movq	%rdi, -8(%rbp)
	movq	%rsi, -16(%rbp)
	movq	-8(%rbp), %rax
	movq	%rax, -32(%rbp)                 ## 8-byte Spill
	movq	-16(%rbp), %rax
	movq	%rax, -24(%rbp)                 ## 8-byte Spill
	movq	-16(%rbp), %rdi
	callq	__ZNSt3__111char_traitsIcE6lengthEPKc
	movq	-32(%rbp), %rdi                 ## 8-byte Reload
	movq	-24(%rbp), %rsi                 ## 8-byte Reload
	movq	%rax, %rdx
	callq	__ZNSt3__124__put_character_sequenceIcNS_11char_traitsIcEEEERNS_13basic_ostreamIT_T0_EES7_PKS4_m
	addq	$32, %rsp
	popq	%rbp
	retq
	.cfi_endproc
                                        ## -- End function
	.private_extern	__ZNSt3__113basic_ostreamIcNS_11char_traitsIcEEElsB6v15006EPFRS3_S4_E ## -- Begin function _ZNSt3__113basic_ostreamIcNS_11char_traitsIcEEElsB6v15006EPFRS3_S4_E
	.globl	__ZNSt3__113basic_ostreamIcNS_11char_traitsIcEEElsB6v15006EPFRS3_S4_E
	.weak_definition	__ZNSt3__113basic_ostreamIcNS_11char_traitsIcEEElsB6v15006EPFRS3_S4_E
	.p2align	4, 0x90
__ZNSt3__113basic_ostreamIcNS_11char_traitsIcEEElsB6v15006EPFRS3_S4_E: ## @_ZNSt3__113basic_ostreamIcNS_11char_traitsIcEEElsB6v15006EPFRS3_S4_E
	.cfi_startproc
## %bb.0:
	pushq	%rbp
	.cfi_def_cfa_offset 16
	.cfi_offset %rbp, -16
	movq	%rsp, %rbp
	.cfi_def_cfa_register %rbp
	subq	$16, %rsp
	movq	%rdi, -8(%rbp)
	movq	%rsi, -16(%rbp)
	movq	-8(%rbp), %rdi
	callq	*-16(%rbp)
	addq	$16, %rsp
	popq	%rbp
	retq
	.cfi_endproc
                                        ## -- End function
	.globl	__ZNSt3__14endlIcNS_11char_traitsIcEEEERNS_13basic_ostreamIT_T0_EES7_ ## -- Begin function _ZNSt3__14endlIcNS_11char_traitsIcEEEERNS_13basic_ostreamIT_T0_EES7_
	.weak_definition	__ZNSt3__14endlIcNS_11char_traitsIcEEEERNS_13basic_ostreamIT_T0_EES7_
	.p2align	4, 0x90
__ZNSt3__14endlIcNS_11char_traitsIcEEEERNS_13basic_ostreamIT_T0_EES7_: ## @_ZNSt3__14endlIcNS_11char_traitsIcEEEERNS_13basic_ostreamIT_T0_EES7_
	.cfi_startproc
## %bb.0:
	pushq	%rbp
	.cfi_def_cfa_offset 16
	.cfi_offset %rbp, -16
	movq	%rsp, %rbp
	.cfi_def_cfa_register %rbp
	subq	$16, %rsp
	movq	%rdi, -8(%rbp)
	movq	-8(%rbp), %rax
	movq	%rax, -16(%rbp)                 ## 8-byte Spill
	movq	-8(%rbp), %rdi
	movq	(%rdi), %rax
	movq	-24(%rax), %rax
	addq	%rax, %rdi
	movl	$10, %esi
	callq	__ZNKSt3__19basic_iosIcNS_11char_traitsIcEEE5widenB6v15006Ec
	movq	-16(%rbp), %rdi                 ## 8-byte Reload
	movsbl	%al, %esi
	callq	__ZNSt3__113basic_ostreamIcNS_11char_traitsIcEEE3putEc
	movq	-8(%rbp), %rdi
	callq	__ZNSt3__113basic_ostreamIcNS_11char_traitsIcEEE5flushEv
	movq	-8(%rbp), %rax
	addq	$16, %rsp
	popq	%rbp
	retq
	.cfi_endproc
                                        ## -- End function
	.globl	_main                           ## -- Begin function main
	.p2align	4, 0x90
_main:                                  ## @main
Lfunc_begin0:
	.cfi_startproc
	.cfi_personality 155, ___gxx_personality_v0
	.cfi_lsda 16, Lexception0
## %bb.0:
	pushq	%rbp
	.cfi_def_cfa_offset 16
	.cfi_offset %rbp, -16
	movq	%rsp, %rbp
	.cfi_def_cfa_register %rbp
	subq	$272, %rsp                      ## imm = 0x110
	movl	$0, -4(%rbp)
	leaq	L_.str.3(%rip), %rsi
	leaq	-56(%rbp), %rdi
	movq	%rdi, -128(%rbp)                ## 8-byte Spill
	callq	__ZNSt3__112basic_stringIcNS_11char_traitsIcEENS_9allocatorIcEEEC1B6v15006IDnEEPKc
	movq	-128(%rbp), %rsi                ## 8-byte Reload
Ltmp0:
	leaq	-32(%rbp), %rdi
	callq	__ZN7StudentC1ENSt3__112basic_stringIcNS0_11char_traitsIcEENS0_9allocatorIcEEEE
Ltmp1:
	jmp	LBB4_1
LBB4_1:
	leaq	-56(%rbp), %rdi
	callq	__ZNSt3__112basic_stringIcNS_11char_traitsIcEENS_9allocatorIcEEED1Ev
Ltmp5:
	movl	$24, %edi
	callq	__Znwm
Ltmp6:
	movq	%rax, -136(%rbp)                ## 8-byte Spill
	jmp	LBB4_2
LBB4_2:
	movq	-136(%rbp), %rax                ## 8-byte Reload
	movb	$1, -105(%rbp)
	movq	%rax, -144(%rbp)                ## 8-byte Spill
Ltmp7:
	leaq	L_.str.4(%rip), %rsi
	leaq	-104(%rbp), %rdi
	callq	__ZNSt3__112basic_stringIcNS_11char_traitsIcEENS_9allocatorIcEEEC1B6v15006IDnEEPKc
Ltmp8:
	jmp	LBB4_3
LBB4_3:
Ltmp9:
	movq	-144(%rbp), %rdi                ## 8-byte Reload
	leaq	-104(%rbp), %rsi
	callq	__ZN7StudentC1ENSt3__112basic_stringIcNS0_11char_traitsIcEENS0_9allocatorIcEEEE
Ltmp10:
	jmp	LBB4_4
LBB4_4:
	movb	$0, -105(%rbp)
Ltmp14:
	leaq	-104(%rbp), %rdi
	callq	__ZNSt3__112basic_stringIcNS_11char_traitsIcEENS_9allocatorIcEEED1Ev
Ltmp15:
	jmp	LBB4_5
LBB4_5:
	movq	-144(%rbp), %rax                ## 8-byte Reload
	movq	%rax, -80(%rbp)
	leaq	-32(%rbp), %rax
	movq	%rax, -120(%rbp)
Ltmp17:
	movq	__ZNSt3__14coutE@GOTPCREL(%rip), %rdi
	leaq	L_.str.2(%rip), %rsi
	callq	__ZNSt3__1lsINS_11char_traitsIcEEEERNS_13basic_ostreamIcT_EES6_PKc
Ltmp18:
	movq	%rax, -152(%rbp)                ## 8-byte Spill
	jmp	LBB4_6
LBB4_6:
Ltmp19:
	movq	-152(%rbp), %rdi                ## 8-byte Reload
	movl	$24, %esi
	callq	__ZNSt3__113basic_ostreamIcNS_11char_traitsIcEEElsEm
Ltmp20:
	movq	%rax, -160(%rbp)                ## 8-byte Spill
	jmp	LBB4_7
LBB4_7:
Ltmp21:
	movq	-160(%rbp), %rdi                ## 8-byte Reload
	movq	__ZNSt3__14endlIcNS_11char_traitsIcEEEERNS_13basic_ostreamIT_T0_EES7_@GOTPCREL(%rip), %rsi
	callq	__ZNSt3__113basic_ostreamIcNS_11char_traitsIcEEElsB6v15006EPFRS3_S4_E
Ltmp22:
	jmp	LBB4_8
LBB4_8:
Ltmp23:
	movq	__ZNSt3__14coutE@GOTPCREL(%rip), %rdi
	leaq	L_.str.5(%rip), %rsi
	callq	__ZNSt3__1lsINS_11char_traitsIcEEEERNS_13basic_ostreamIcT_EES6_PKc
Ltmp24:
	movq	%rax, -168(%rbp)                ## 8-byte Spill
	jmp	LBB4_9
LBB4_9:
Ltmp25:
	movq	-168(%rbp), %rdi                ## 8-byte Reload
	movl	$24, %esi
	callq	__ZNSt3__113basic_ostreamIcNS_11char_traitsIcEEElsEm
Ltmp26:
	movq	%rax, -176(%rbp)                ## 8-byte Spill
	jmp	LBB4_10
LBB4_10:
Ltmp27:
	movq	-176(%rbp), %rdi                ## 8-byte Reload
	movq	__ZNSt3__14endlIcNS_11char_traitsIcEEEERNS_13basic_ostreamIT_T0_EES7_@GOTPCREL(%rip), %rsi
	callq	__ZNSt3__113basic_ostreamIcNS_11char_traitsIcEEElsB6v15006EPFRS3_S4_E
Ltmp28:
	jmp	LBB4_11
LBB4_11:
Ltmp29:
	movq	__ZNSt3__14coutE@GOTPCREL(%rip), %rdi
	leaq	L_.str.1(%rip), %rsi
	callq	__ZNSt3__1lsINS_11char_traitsIcEEEERNS_13basic_ostreamIcT_EES6_PKc
Ltmp30:
	movq	%rax, -184(%rbp)                ## 8-byte Spill
	jmp	LBB4_12
LBB4_12:
Ltmp31:
	movq	-184(%rbp), %rdi                ## 8-byte Reload
	movl	$24, %esi
	callq	__ZNSt3__113basic_ostreamIcNS_11char_traitsIcEEElsEm
Ltmp32:
	movq	%rax, -192(%rbp)                ## 8-byte Spill
	jmp	LBB4_13
LBB4_13:
Ltmp33:
	movq	-192(%rbp), %rdi                ## 8-byte Reload
	movq	__ZNSt3__14endlIcNS_11char_traitsIcEEEERNS_13basic_ostreamIT_T0_EES7_@GOTPCREL(%rip), %rsi
	callq	__ZNSt3__113basic_ostreamIcNS_11char_traitsIcEEElsB6v15006EPFRS3_S4_E
Ltmp34:
	jmp	LBB4_14
LBB4_14:
Ltmp35:
	movq	__ZNSt3__14coutE@GOTPCREL(%rip), %rdi
	leaq	L_.str.6(%rip), %rsi
	callq	__ZNSt3__1lsINS_11char_traitsIcEEEERNS_13basic_ostreamIcT_EES6_PKc
Ltmp36:
	movq	%rax, -200(%rbp)                ## 8-byte Spill
	jmp	LBB4_15
LBB4_15:
Ltmp37:
	movq	-200(%rbp), %rdi                ## 8-byte Reload
	movl	$8, %esi
	callq	__ZNSt3__113basic_ostreamIcNS_11char_traitsIcEEElsEm
Ltmp38:
	movq	%rax, -208(%rbp)                ## 8-byte Spill
	jmp	LBB4_16
LBB4_16:
Ltmp39:
	movq	-208(%rbp), %rdi                ## 8-byte Reload
	movq	__ZNSt3__14endlIcNS_11char_traitsIcEEEERNS_13basic_ostreamIT_T0_EES7_@GOTPCREL(%rip), %rsi
	callq	__ZNSt3__113basic_ostreamIcNS_11char_traitsIcEEElsB6v15006EPFRS3_S4_E
Ltmp40:
	jmp	LBB4_17
LBB4_17:
Ltmp41:
	movq	__ZNSt3__14coutE@GOTPCREL(%rip), %rdi
	leaq	L_.str.7(%rip), %rsi
	callq	__ZNSt3__1lsINS_11char_traitsIcEEEERNS_13basic_ostreamIcT_EES6_PKc
Ltmp42:
	movq	%rax, -216(%rbp)                ## 8-byte Spill
	jmp	LBB4_18
LBB4_18:
Ltmp43:
	movq	-216(%rbp), %rdi                ## 8-byte Reload
	movl	$8, %esi
	callq	__ZNSt3__113basic_ostreamIcNS_11char_traitsIcEEElsEm
Ltmp44:
	movq	%rax, -224(%rbp)                ## 8-byte Spill
	jmp	LBB4_19
LBB4_19:
Ltmp45:
	movq	-224(%rbp), %rdi                ## 8-byte Reload
	movq	__ZNSt3__14endlIcNS_11char_traitsIcEEEERNS_13basic_ostreamIT_T0_EES7_@GOTPCREL(%rip), %rsi
	callq	__ZNSt3__113basic_ostreamIcNS_11char_traitsIcEEElsB6v15006EPFRS3_S4_E
Ltmp46:
	jmp	LBB4_20
LBB4_20:
	movq	-120(%rbp), %rdi
Ltmp47:
	leaq	L_.str.8(%rip), %rsi
	callq	__ZNSt3__112basic_stringIcNS_11char_traitsIcEENS_9allocatorIcEEEaSB6v15006EPKc
Ltmp48:
	jmp	LBB4_21
LBB4_21:
Ltmp49:
	movq	__ZNSt3__14coutE@GOTPCREL(%rip), %rdi
	leaq	L_.str.9(%rip), %rsi
	callq	__ZNSt3__1lsINS_11char_traitsIcEEEERNS_13basic_ostreamIcT_EES6_PKc
Ltmp50:
	movq	%rax, -232(%rbp)                ## 8-byte Spill
	jmp	LBB4_22
LBB4_22:
Ltmp51:
	movq	-232(%rbp), %rdi                ## 8-byte Reload
	leaq	-32(%rbp), %rsi
	callq	__ZNSt3__1lsIcNS_11char_traitsIcEENS_9allocatorIcEEEERNS_13basic_ostreamIT_T0_EES9_RKNS_12basic_stringIS6_S7_T1_EE
Ltmp52:
	movq	%rax, -240(%rbp)                ## 8-byte Spill
	jmp	LBB4_23
LBB4_23:
Ltmp53:
	movq	-240(%rbp), %rdi                ## 8-byte Reload
	movq	__ZNSt3__14endlIcNS_11char_traitsIcEEEERNS_13basic_ostreamIT_T0_EES7_@GOTPCREL(%rip), %rsi
	callq	__ZNSt3__113basic_ostreamIcNS_11char_traitsIcEEElsB6v15006EPFRS3_S4_E
Ltmp54:
	jmp	LBB4_24
LBB4_24:
	movq	-80(%rbp), %rdi
Ltmp55:
	leaq	L_.str.8(%rip), %rsi
	callq	__ZNSt3__112basic_stringIcNS_11char_traitsIcEENS_9allocatorIcEEEaSB6v15006EPKc
Ltmp56:
	jmp	LBB4_25
LBB4_25:
Ltmp57:
	movq	__ZNSt3__14coutE@GOTPCREL(%rip), %rdi
	leaq	L_.str.10(%rip), %rsi
	callq	__ZNSt3__1lsINS_11char_traitsIcEEEERNS_13basic_ostreamIcT_EES6_PKc
Ltmp58:
	movq	%rax, -248(%rbp)                ## 8-byte Spill
	jmp	LBB4_26
LBB4_26:
	movq	-248(%rbp), %rdi                ## 8-byte Reload
	movq	-80(%rbp), %rsi
Ltmp59:
	callq	__ZNSt3__1lsIcNS_11char_traitsIcEENS_9allocatorIcEEEERNS_13basic_ostreamIT_T0_EES9_RKNS_12basic_stringIS6_S7_T1_EE
Ltmp60:
	movq	%rax, -256(%rbp)                ## 8-byte Spill
	jmp	LBB4_27
LBB4_27:
Ltmp61:
	movq	-256(%rbp), %rdi                ## 8-byte Reload
	movq	__ZNSt3__14endlIcNS_11char_traitsIcEEEERNS_13basic_ostreamIT_T0_EES7_@GOTPCREL(%rip), %rsi
	callq	__ZNSt3__113basic_ostreamIcNS_11char_traitsIcEEElsB6v15006EPFRS3_S4_E
Ltmp62:
	jmp	LBB4_28
LBB4_28:
	movq	-120(%rbp), %rdi
Ltmp63:
	callq	__Z8printRefR7Student
Ltmp64:
	jmp	LBB4_29
LBB4_29:
	movq	-80(%rbp), %rax
	movq	%rax, -264(%rbp)                ## 8-byte Spill
	cmpq	$0, %rax
	je	LBB4_32
## %bb.30:
Ltmp66:
	movq	-264(%rbp), %rdi                ## 8-byte Reload
	callq	__ZN7StudentD1Ev
Ltmp67:
	jmp	LBB4_31
LBB4_31:
	movq	-264(%rbp), %rdi                ## 8-byte Reload
	callq	__ZdlPv
LBB4_32:
	leaq	-32(%rbp), %rdi
	callq	__ZN7StudentD1Ev
	movl	-4(%rbp), %eax
	addq	$272, %rsp                      ## imm = 0x110
	popq	%rbp
	retq
LBB4_33:
Ltmp2:
	movq	%rax, %rcx
	movl	%edx, %eax
	movq	%rcx, -64(%rbp)
	movl	%eax, -68(%rbp)
Ltmp3:
	leaq	-56(%rbp), %rdi
	callq	__ZNSt3__112basic_stringIcNS_11char_traitsIcEENS_9allocatorIcEEED1Ev
Ltmp4:
	jmp	LBB4_34
LBB4_34:
	jmp	LBB4_45
LBB4_35:
Ltmp65:
	movq	%rax, %rcx
	movl	%edx, %eax
	movq	%rcx, -64(%rbp)
	movl	%eax, -68(%rbp)
	jmp	LBB4_43
LBB4_36:
Ltmp16:
	movq	%rax, %rcx
	movl	%edx, %eax
	movq	%rcx, -64(%rbp)
	movl	%eax, -68(%rbp)
	jmp	LBB4_39
LBB4_37:
Ltmp11:
	movq	%rax, %rcx
	movl	%edx, %eax
	movq	%rcx, -64(%rbp)
	movl	%eax, -68(%rbp)
Ltmp12:
	leaq	-104(%rbp), %rdi
	callq	__ZNSt3__112basic_stringIcNS_11char_traitsIcEENS_9allocatorIcEEED1Ev
Ltmp13:
	jmp	LBB4_38
LBB4_38:
	jmp	LBB4_39
LBB4_39:
	testb	$1, -105(%rbp)
	jne	LBB4_40
	jmp	LBB4_41
LBB4_40:
	movq	-136(%rbp), %rdi                ## 8-byte Reload
	callq	__ZdlPv
LBB4_41:
	jmp	LBB4_43
LBB4_42:
Ltmp68:
	movq	-264(%rbp), %rdi                ## 8-byte Reload
	movq	%rax, %rcx
	movl	%edx, %eax
	movq	%rcx, -64(%rbp)
	movl	%eax, -68(%rbp)
	callq	__ZdlPv
LBB4_43:
Ltmp69:
	leaq	-32(%rbp), %rdi
	callq	__ZN7StudentD1Ev
Ltmp70:
	jmp	LBB4_44
LBB4_44:
	jmp	LBB4_45
LBB4_45:
	movq	-64(%rbp), %rdi
	callq	__Unwind_Resume
LBB4_46:
Ltmp71:
	movq	%rax, %rdi
	callq	___clang_call_terminate
Lfunc_end0:
	.cfi_endproc
	.section	__TEXT,__gcc_except_tab
	.p2align	2
GCC_except_table4:
Lexception0:
	.byte	255                             ## @LPStart Encoding = omit
	.byte	155                             ## @TType Encoding = indirect pcrel sdata4
	.uleb128 Lttbase0-Lttbaseref0
Lttbaseref0:
	.byte	1                               ## Call site Encoding = uleb128
	.uleb128 Lcst_end0-Lcst_begin0
Lcst_begin0:
	.uleb128 Lfunc_begin0-Lfunc_begin0      ## >> Call Site 1 <<
	.uleb128 Ltmp0-Lfunc_begin0             ##   Call between Lfunc_begin0 and Ltmp0
	.byte	0                               ##     has no landing pad
	.byte	0                               ##   On action: cleanup
	.uleb128 Ltmp0-Lfunc_begin0             ## >> Call Site 2 <<
	.uleb128 Ltmp1-Ltmp0                    ##   Call between Ltmp0 and Ltmp1
	.uleb128 Ltmp2-Lfunc_begin0             ##     jumps to Ltmp2
	.byte	0                               ##   On action: cleanup
	.uleb128 Ltmp1-Lfunc_begin0             ## >> Call Site 3 <<
	.uleb128 Ltmp5-Ltmp1                    ##   Call between Ltmp1 and Ltmp5
	.byte	0                               ##     has no landing pad
	.byte	0                               ##   On action: cleanup
	.uleb128 Ltmp5-Lfunc_begin0             ## >> Call Site 4 <<
	.uleb128 Ltmp6-Ltmp5                    ##   Call between Ltmp5 and Ltmp6
	.uleb128 Ltmp65-Lfunc_begin0            ##     jumps to Ltmp65
	.byte	0                               ##   On action: cleanup
	.uleb128 Ltmp7-Lfunc_begin0             ## >> Call Site 5 <<
	.uleb128 Ltmp8-Ltmp7                    ##   Call between Ltmp7 and Ltmp8
	.uleb128 Ltmp16-Lfunc_begin0            ##     jumps to Ltmp16
	.byte	0                               ##   On action: cleanup
	.uleb128 Ltmp9-Lfunc_begin0             ## >> Call Site 6 <<
	.uleb128 Ltmp10-Ltmp9                   ##   Call between Ltmp9 and Ltmp10
	.uleb128 Ltmp11-Lfunc_begin0            ##     jumps to Ltmp11
	.byte	0                               ##   On action: cleanup
	.uleb128 Ltmp14-Lfunc_begin0            ## >> Call Site 7 <<
	.uleb128 Ltmp15-Ltmp14                  ##   Call between Ltmp14 and Ltmp15
	.uleb128 Ltmp16-Lfunc_begin0            ##     jumps to Ltmp16
	.byte	0                               ##   On action: cleanup
	.uleb128 Ltmp17-Lfunc_begin0            ## >> Call Site 8 <<
	.uleb128 Ltmp64-Ltmp17                  ##   Call between Ltmp17 and Ltmp64
	.uleb128 Ltmp65-Lfunc_begin0            ##     jumps to Ltmp65
	.byte	0                               ##   On action: cleanup
	.uleb128 Ltmp66-Lfunc_begin0            ## >> Call Site 9 <<
	.uleb128 Ltmp67-Ltmp66                  ##   Call between Ltmp66 and Ltmp67
	.uleb128 Ltmp68-Lfunc_begin0            ##     jumps to Ltmp68
	.byte	0                               ##   On action: cleanup
	.uleb128 Ltmp67-Lfunc_begin0            ## >> Call Site 10 <<
	.uleb128 Ltmp3-Ltmp67                   ##   Call between Ltmp67 and Ltmp3
	.byte	0                               ##     has no landing pad
	.byte	0                               ##   On action: cleanup
	.uleb128 Ltmp3-Lfunc_begin0             ## >> Call Site 11 <<
	.uleb128 Ltmp70-Ltmp3                   ##   Call between Ltmp3 and Ltmp70
	.uleb128 Ltmp71-Lfunc_begin0            ##     jumps to Ltmp71
	.byte	1                               ##   On action: 1
	.uleb128 Ltmp70-Lfunc_begin0            ## >> Call Site 12 <<
	.uleb128 Lfunc_end0-Ltmp70              ##   Call between Ltmp70 and Lfunc_end0
	.byte	0                               ##     has no landing pad
	.byte	0                               ##   On action: cleanup
Lcst_end0:
	.byte	1                               ## >> Action Record 1 <<
                                        ##   Catch TypeInfo 1
	.byte	0                               ##   No further actions
	.p2align	2
                                        ## >> Catch TypeInfos <<
	.long	0                               ## TypeInfo 1
Lttbase0:
	.p2align	2
                                        ## -- End function
	.section	__TEXT,__text,regular,pure_instructions
	.globl	__ZNSt3__112basic_stringIcNS_11char_traitsIcEENS_9allocatorIcEEEC1B6v15006IDnEEPKc ## -- Begin function _ZNSt3__112basic_stringIcNS_11char_traitsIcEENS_9allocatorIcEEEC1B6v15006IDnEEPKc
	.weak_def_can_be_hidden	__ZNSt3__112basic_stringIcNS_11char_traitsIcEENS_9allocatorIcEEEC1B6v15006IDnEEPKc
	.p2align	4, 0x90
__ZNSt3__112basic_stringIcNS_11char_traitsIcEENS_9allocatorIcEEEC1B6v15006IDnEEPKc: ## @_ZNSt3__112basic_stringIcNS_11char_traitsIcEENS_9allocatorIcEEEC1B6v15006IDnEEPKc
	.cfi_startproc
## %bb.0:
	pushq	%rbp
	.cfi_def_cfa_offset 16
	.cfi_offset %rbp, -16
	movq	%rsp, %rbp
	.cfi_def_cfa_register %rbp
	subq	$16, %rsp
	movq	%rdi, -8(%rbp)
	movq	%rsi, -16(%rbp)
	movq	-8(%rbp), %rdi
	movq	-16(%rbp), %rsi
	callq	__ZNSt3__112basic_stringIcNS_11char_traitsIcEENS_9allocatorIcEEEC2B6v15006IDnEEPKc
	addq	$16, %rsp
	popq	%rbp
	retq
	.cfi_endproc
                                        ## -- End function
	.private_extern	___clang_call_terminate ## -- Begin function __clang_call_terminate
	.globl	___clang_call_terminate
	.weak_definition	___clang_call_terminate
	.p2align	4, 0x90
___clang_call_terminate:                ## @__clang_call_terminate
## %bb.0:
	pushq	%rax
	callq	___cxa_begin_catch
	callq	__ZSt9terminatev
                                        ## -- End function
	.private_extern	__ZNSt3__112basic_stringIcNS_11char_traitsIcEENS_9allocatorIcEEEaSB6v15006EPKc ## -- Begin function _ZNSt3__112basic_stringIcNS_11char_traitsIcEENS_9allocatorIcEEEaSB6v15006EPKc
	.globl	__ZNSt3__112basic_stringIcNS_11char_traitsIcEENS_9allocatorIcEEEaSB6v15006EPKc
	.weak_definition	__ZNSt3__112basic_stringIcNS_11char_traitsIcEENS_9allocatorIcEEEaSB6v15006EPKc
	.p2align	4, 0x90
__ZNSt3__112basic_stringIcNS_11char_traitsIcEENS_9allocatorIcEEEaSB6v15006EPKc: ## @_ZNSt3__112basic_stringIcNS_11char_traitsIcEENS_9allocatorIcEEEaSB6v15006EPKc
	.cfi_startproc
## %bb.0:
	pushq	%rbp
	.cfi_def_cfa_offset 16
	.cfi_offset %rbp, -16
	movq	%rsp, %rbp
	.cfi_def_cfa_register %rbp
	subq	$16, %rsp
	movq	%rdi, -8(%rbp)
	movq	%rsi, -16(%rbp)
	movq	-8(%rbp), %rdi
	movq	-16(%rbp), %rsi
	callq	__ZNSt3__112basic_stringIcNS_11char_traitsIcEENS_9allocatorIcEEE6assignEPKc
	addq	$16, %rsp
	popq	%rbp
	retq
	.cfi_endproc
                                        ## -- End function
	.globl	__ZNSt3__1lsIcNS_11char_traitsIcEENS_9allocatorIcEEEERNS_13basic_ostreamIT_T0_EES9_RKNS_12basic_stringIS6_S7_T1_EE ## -- Begin function _ZNSt3__1lsIcNS_11char_traitsIcEENS_9allocatorIcEEEERNS_13basic_ostreamIT_T0_EES9_RKNS_12basic_stringIS6_S7_T1_EE
	.weak_definition	__ZNSt3__1lsIcNS_11char_traitsIcEENS_9allocatorIcEEEERNS_13basic_ostreamIT_T0_EES9_RKNS_12basic_stringIS6_S7_T1_EE
	.p2align	4, 0x90
__ZNSt3__1lsIcNS_11char_traitsIcEENS_9allocatorIcEEEERNS_13basic_ostreamIT_T0_EES9_RKNS_12basic_stringIS6_S7_T1_EE: ## @_ZNSt3__1lsIcNS_11char_traitsIcEENS_9allocatorIcEEEERNS_13basic_ostreamIT_T0_EES9_RKNS_12basic_stringIS6_S7_T1_EE
	.cfi_startproc
## %bb.0:
	pushq	%rbp
	.cfi_def_cfa_offset 16
	.cfi_offset %rbp, -16
	movq	%rsp, %rbp
	.cfi_def_cfa_register %rbp
	subq	$32, %rsp
	movq	%rdi, -8(%rbp)
	movq	%rsi, -16(%rbp)
	movq	-8(%rbp), %rax
	movq	%rax, -32(%rbp)                 ## 8-byte Spill
	movq	-16(%rbp), %rdi
	callq	__ZNKSt3__112basic_stringIcNS_11char_traitsIcEENS_9allocatorIcEEE4dataB6v15006Ev
	movq	%rax, -24(%rbp)                 ## 8-byte Spill
	movq	-16(%rbp), %rdi
	callq	__ZNKSt3__112basic_stringIcNS_11char_traitsIcEENS_9allocatorIcEEE4sizeB6v15006Ev
	movq	-32(%rbp), %rdi                 ## 8-byte Reload
	movq	-24(%rbp), %rsi                 ## 8-byte Reload
	movq	%rax, %rdx
	callq	__ZNSt3__124__put_character_sequenceIcNS_11char_traitsIcEEEERNS_13basic_ostreamIT_T0_EES7_PKS4_m
	addq	$32, %rsp
	popq	%rbp
	retq
	.cfi_endproc
                                        ## -- End function
	.globl	__ZNSt3__124__put_character_sequenceIcNS_11char_traitsIcEEEERNS_13basic_ostreamIT_T0_EES7_PKS4_m ## -- Begin function _ZNSt3__124__put_character_sequenceIcNS_11char_traitsIcEEEERNS_13basic_ostreamIT_T0_EES7_PKS4_m
	.weak_definition	__ZNSt3__124__put_character_sequenceIcNS_11char_traitsIcEEEERNS_13basic_ostreamIT_T0_EES7_PKS4_m
	.p2align	4, 0x90
__ZNSt3__124__put_character_sequenceIcNS_11char_traitsIcEEEERNS_13basic_ostreamIT_T0_EES7_PKS4_m: ## @_ZNSt3__124__put_character_sequenceIcNS_11char_traitsIcEEEERNS_13basic_ostreamIT_T0_EES7_PKS4_m
Lfunc_begin1:
	.cfi_startproc
	.cfi_personality 155, ___gxx_personality_v0
	.cfi_lsda 16, Lexception1
## %bb.0:
	pushq	%rbp
	.cfi_def_cfa_offset 16
	.cfi_offset %rbp, -16
	movq	%rsp, %rbp
	.cfi_def_cfa_register %rbp
	subq	$144, %rsp
	movq	%rdi, -8(%rbp)
	movq	%rsi, -16(%rbp)
	movq	%rdx, -24(%rbp)
	movq	-8(%rbp), %rsi
Ltmp72:
	leaq	-40(%rbp), %rdi
	callq	__ZNSt3__113basic_ostreamIcNS_11char_traitsIcEEE6sentryC1ERS3_
Ltmp73:
	jmp	LBB9_1
LBB9_1:
Ltmp74:
	leaq	-40(%rbp), %rdi
	callq	__ZNKSt3__113basic_ostreamIcNS_11char_traitsIcEEE6sentrycvbB6v15006Ev
Ltmp75:
	movb	%al, -73(%rbp)                  ## 1-byte Spill
	jmp	LBB9_2
LBB9_2:
	movb	-73(%rbp), %al                  ## 1-byte Reload
	testb	$1, %al
	jne	LBB9_3
	jmp	LBB9_15
LBB9_3:
	movq	-8(%rbp), %rsi
	leaq	-72(%rbp), %rdi
	callq	__ZNSt3__119ostreambuf_iteratorIcNS_11char_traitsIcEEEC1B6v15006ERNS_13basic_ostreamIcS2_EE
	movq	-16(%rbp), %rax
	movq	%rax, -88(%rbp)                 ## 8-byte Spill
	movq	-8(%rbp), %rdi
	movq	(%rdi), %rax
	movq	-24(%rax), %rax
	addq	%rax, %rdi
Ltmp76:
	callq	__ZNKSt3__18ios_base5flagsB6v15006Ev
Ltmp77:
	movl	%eax, -80(%rbp)                 ## 4-byte Spill
	jmp	LBB9_4
LBB9_4:
	movl	-80(%rbp), %eax                 ## 4-byte Reload
	andl	$176, %eax
	cmpl	$32, %eax
	jne	LBB9_6
## %bb.5:
	movq	-16(%rbp), %rax
	addq	-24(%rbp), %rax
	movq	%rax, -96(%rbp)                 ## 8-byte Spill
	jmp	LBB9_7
LBB9_6:
	movq	-16(%rbp), %rax
	movq	%rax, -96(%rbp)                 ## 8-byte Spill
LBB9_7:
	movq	-96(%rbp), %rax                 ## 8-byte Reload
	movq	%rax, -128(%rbp)                ## 8-byte Spill
	movq	-16(%rbp), %rax
	movq	-24(%rbp), %rcx
	addq	%rcx, %rax
	movq	%rax, -120(%rbp)                ## 8-byte Spill
	movq	-8(%rbp), %rdi
	movq	(%rdi), %rax
	movq	-24(%rax), %rax
	addq	%rax, %rdi
	movq	%rdi, -112(%rbp)                ## 8-byte Spill
Ltmp78:
	callq	__ZNKSt3__19basic_iosIcNS_11char_traitsIcEEE4fillB6v15006Ev
Ltmp79:
	movb	%al, -97(%rbp)                  ## 1-byte Spill
	jmp	LBB9_8
LBB9_8:
	movq	-112(%rbp), %r8                 ## 8-byte Reload
	movq	-120(%rbp), %rcx                ## 8-byte Reload
	movq	-128(%rbp), %rdx                ## 8-byte Reload
	movq	-88(%rbp), %rsi                 ## 8-byte Reload
	movb	-97(%rbp), %al                  ## 1-byte Reload
	movq	-72(%rbp), %rdi
Ltmp80:
	movsbl	%al, %r9d
	callq	__ZNSt3__116__pad_and_outputIcNS_11char_traitsIcEEEENS_19ostreambuf_iteratorIT_T0_EES6_PKS4_S8_S8_RNS_8ios_baseES4_
Ltmp81:
	movq	%rax, -136(%rbp)                ## 8-byte Spill
	jmp	LBB9_9
LBB9_9:
	movq	-136(%rbp), %rax                ## 8-byte Reload
	movq	%rax, -64(%rbp)
	leaq	-64(%rbp), %rdi
	callq	__ZNKSt3__119ostreambuf_iteratorIcNS_11char_traitsIcEEE6failedB6v15006Ev
	testb	$1, %al
	jne	LBB9_10
	jmp	LBB9_14
LBB9_10:
	movq	-8(%rbp), %rdi
	movq	(%rdi), %rax
	movq	-24(%rax), %rax
	addq	%rax, %rdi
Ltmp82:
	movl	$5, %esi
	callq	__ZNSt3__19basic_iosIcNS_11char_traitsIcEEE8setstateB6v15006Ej
Ltmp83:
	jmp	LBB9_11
LBB9_11:
	jmp	LBB9_14
LBB9_12:
Ltmp89:
	movq	%rax, %rcx
	movl	%edx, %eax
	movq	%rcx, -48(%rbp)
	movl	%eax, -52(%rbp)
	jmp	LBB9_18
LBB9_13:
Ltmp84:
	movq	%rax, %rcx
	movl	%edx, %eax
	movq	%rcx, -48(%rbp)
	movl	%eax, -52(%rbp)
Ltmp85:
	leaq	-40(%rbp), %rdi
	callq	__ZNSt3__113basic_ostreamIcNS_11char_traitsIcEEE6sentryD1Ev
Ltmp86:
	jmp	LBB9_17
LBB9_14:
	jmp	LBB9_15
LBB9_15:
Ltmp87:
	leaq	-40(%rbp), %rdi
	callq	__ZNSt3__113basic_ostreamIcNS_11char_traitsIcEEE6sentryD1Ev
Ltmp88:
	jmp	LBB9_16
LBB9_16:
	jmp	LBB9_20
LBB9_17:
	jmp	LBB9_18
LBB9_18:
	movq	-48(%rbp), %rdi
	callq	___cxa_begin_catch
	movq	-8(%rbp), %rdi
	movq	(%rdi), %rax
	movq	-24(%rax), %rax
	addq	%rax, %rdi
Ltmp90:
	callq	__ZNSt3__18ios_base33__set_badbit_and_consider_rethrowEv
Ltmp91:
	jmp	LBB9_19
LBB9_19:
	callq	___cxa_end_catch
LBB9_20:
	movq	-8(%rbp), %rax
	addq	$144, %rsp
	popq	%rbp
	retq
LBB9_21:
Ltmp92:
	movq	%rax, %rcx
	movl	%edx, %eax
	movq	%rcx, -48(%rbp)
	movl	%eax, -52(%rbp)
Ltmp93:
	callq	___cxa_end_catch
Ltmp94:
	jmp	LBB9_22
LBB9_22:
	jmp	LBB9_23
LBB9_23:
	movq	-48(%rbp), %rdi
	callq	__Unwind_Resume
LBB9_24:
Ltmp95:
	movq	%rax, %rdi
	callq	___clang_call_terminate
Lfunc_end1:
	.cfi_endproc
	.section	__TEXT,__gcc_except_tab
	.p2align	2
GCC_except_table9:
Lexception1:
	.byte	255                             ## @LPStart Encoding = omit
	.byte	155                             ## @TType Encoding = indirect pcrel sdata4
	.uleb128 Lttbase1-Lttbaseref1
Lttbaseref1:
	.byte	1                               ## Call site Encoding = uleb128
	.uleb128 Lcst_end1-Lcst_begin1
Lcst_begin1:
	.uleb128 Ltmp72-Lfunc_begin1            ## >> Call Site 1 <<
	.uleb128 Ltmp73-Ltmp72                  ##   Call between Ltmp72 and Ltmp73
	.uleb128 Ltmp89-Lfunc_begin1            ##     jumps to Ltmp89
	.byte	1                               ##   On action: 1
	.uleb128 Ltmp74-Lfunc_begin1            ## >> Call Site 2 <<
	.uleb128 Ltmp83-Ltmp74                  ##   Call between Ltmp74 and Ltmp83
	.uleb128 Ltmp84-Lfunc_begin1            ##     jumps to Ltmp84
	.byte	1                               ##   On action: 1
	.uleb128 Ltmp85-Lfunc_begin1            ## >> Call Site 3 <<
	.uleb128 Ltmp86-Ltmp85                  ##   Call between Ltmp85 and Ltmp86
	.uleb128 Ltmp95-Lfunc_begin1            ##     jumps to Ltmp95
	.byte	1                               ##   On action: 1
	.uleb128 Ltmp87-Lfunc_begin1            ## >> Call Site 4 <<
	.uleb128 Ltmp88-Ltmp87                  ##   Call between Ltmp87 and Ltmp88
	.uleb128 Ltmp89-Lfunc_begin1            ##     jumps to Ltmp89
	.byte	1                               ##   On action: 1
	.uleb128 Ltmp88-Lfunc_begin1            ## >> Call Site 5 <<
	.uleb128 Ltmp90-Ltmp88                  ##   Call between Ltmp88 and Ltmp90
	.byte	0                               ##     has no landing pad
	.byte	0                               ##   On action: cleanup
	.uleb128 Ltmp90-Lfunc_begin1            ## >> Call Site 6 <<
	.uleb128 Ltmp91-Ltmp90                  ##   Call between Ltmp90 and Ltmp91
	.uleb128 Ltmp92-Lfunc_begin1            ##     jumps to Ltmp92
	.byte	0                               ##   On action: cleanup
	.uleb128 Ltmp91-Lfunc_begin1            ## >> Call Site 7 <<
	.uleb128 Ltmp93-Ltmp91                  ##   Call between Ltmp91 and Ltmp93
	.byte	0                               ##     has no landing pad
	.byte	0                               ##   On action: cleanup
	.uleb128 Ltmp93-Lfunc_begin1            ## >> Call Site 8 <<
	.uleb128 Ltmp94-Ltmp93                  ##   Call between Ltmp93 and Ltmp94
	.uleb128 Ltmp95-Lfunc_begin1            ##     jumps to Ltmp95
	.byte	1                               ##   On action: 1
	.uleb128 Ltmp94-Lfunc_begin1            ## >> Call Site 9 <<
	.uleb128 Lfunc_end1-Ltmp94              ##   Call between Ltmp94 and Lfunc_end1
	.byte	0                               ##     has no landing pad
	.byte	0                               ##   On action: cleanup
Lcst_end1:
	.byte	1                               ## >> Action Record 1 <<
                                        ##   Catch TypeInfo 1
	.byte	0                               ##   No further actions
	.p2align	2
                                        ## >> Catch TypeInfos <<
	.long	0                               ## TypeInfo 1
Lttbase1:
	.p2align	2
                                        ## -- End function
	.section	__TEXT,__text,regular,pure_instructions
	.globl	__ZNSt3__111char_traitsIcE6lengthEPKc ## -- Begin function _ZNSt3__111char_traitsIcE6lengthEPKc
	.weak_definition	__ZNSt3__111char_traitsIcE6lengthEPKc
	.p2align	4, 0x90
__ZNSt3__111char_traitsIcE6lengthEPKc:  ## @_ZNSt3__111char_traitsIcE6lengthEPKc
	.cfi_startproc
## %bb.0:
	pushq	%rbp
	.cfi_def_cfa_offset 16
	.cfi_offset %rbp, -16
	movq	%rsp, %rbp
	.cfi_def_cfa_register %rbp
	subq	$16, %rsp
	movq	%rdi, -8(%rbp)
	movq	-8(%rbp), %rdi
	callq	_strlen
	addq	$16, %rsp
	popq	%rbp
	retq
	.cfi_endproc
                                        ## -- End function
	.private_extern	__ZNKSt3__113basic_ostreamIcNS_11char_traitsIcEEE6sentrycvbB6v15006Ev ## -- Begin function _ZNKSt3__113basic_ostreamIcNS_11char_traitsIcEEE6sentrycvbB6v15006Ev
	.globl	__ZNKSt3__113basic_ostreamIcNS_11char_traitsIcEEE6sentrycvbB6v15006Ev
	.weak_definition	__ZNKSt3__113basic_ostreamIcNS_11char_traitsIcEEE6sentrycvbB6v15006Ev
	.p2align	4, 0x90
__ZNKSt3__113basic_ostreamIcNS_11char_traitsIcEEE6sentrycvbB6v15006Ev: ## @_ZNKSt3__113basic_ostreamIcNS_11char_traitsIcEEE6sentrycvbB6v15006Ev
	.cfi_startproc
## %bb.0:
	pushq	%rbp
	.cfi_def_cfa_offset 16
	.cfi_offset %rbp, -16
	movq	%rsp, %rbp
	.cfi_def_cfa_register %rbp
	movq	%rdi, -8(%rbp)
	movq	-8(%rbp), %rax
	movb	(%rax), %al
	andb	$1, %al
	movzbl	%al, %eax
	popq	%rbp
	retq
	.cfi_endproc
                                        ## -- End function
	.private_extern	__ZNSt3__116__pad_and_outputIcNS_11char_traitsIcEEEENS_19ostreambuf_iteratorIT_T0_EES6_PKS4_S8_S8_RNS_8ios_baseES4_ ## -- Begin function _ZNSt3__116__pad_and_outputIcNS_11char_traitsIcEEEENS_19ostreambuf_iteratorIT_T0_EES6_PKS4_S8_S8_RNS_8ios_baseES4_
	.globl	__ZNSt3__116__pad_and_outputIcNS_11char_traitsIcEEEENS_19ostreambuf_iteratorIT_T0_EES6_PKS4_S8_S8_RNS_8ios_baseES4_
	.weak_definition	__ZNSt3__116__pad_and_outputIcNS_11char_traitsIcEEEENS_19ostreambuf_iteratorIT_T0_EES6_PKS4_S8_S8_RNS_8ios_baseES4_
	.p2align	4, 0x90
__ZNSt3__116__pad_and_outputIcNS_11char_traitsIcEEEENS_19ostreambuf_iteratorIT_T0_EES6_PKS4_S8_S8_RNS_8ios_baseES4_: ## @_ZNSt3__116__pad_and_outputIcNS_11char_traitsIcEEEENS_19ostreambuf_iteratorIT_T0_EES6_PKS4_S8_S8_RNS_8ios_baseES4_
Lfunc_begin2:
	.cfi_startproc
	.cfi_personality 155, ___gxx_personality_v0
	.cfi_lsda 16, Lexception2
## %bb.0:
	pushq	%rbp
	.cfi_def_cfa_offset 16
	.cfi_offset %rbp, -16
	movq	%rsp, %rbp
	.cfi_def_cfa_register %rbp
	subq	$144, %rsp
	movb	%r9b, %al
	movq	%rdi, -16(%rbp)
	movq	%rsi, -24(%rbp)
	movq	%rdx, -32(%rbp)
	movq	%rcx, -40(%rbp)
	movq	%r8, -48(%rbp)
	movb	%al, -49(%rbp)
	cmpq	$0, -16(%rbp)
	jne	LBB12_2
## %bb.1:
	movq	-16(%rbp), %rax
	movq	%rax, -8(%rbp)
	jmp	LBB12_23
LBB12_2:
	movq	-40(%rbp), %rax
	movq	-24(%rbp), %rcx
	subq	%rcx, %rax
	movq	%rax, -64(%rbp)
	movq	-48(%rbp), %rdi
	callq	__ZNKSt3__18ios_base5widthB6v15006Ev
	movq	%rax, -72(%rbp)
	movq	-72(%rbp), %rax
	cmpq	-64(%rbp), %rax
	jle	LBB12_4
## %bb.3:
	movq	-64(%rbp), %rcx
	movq	-72(%rbp), %rax
	subq	%rcx, %rax
	movq	%rax, -72(%rbp)
	jmp	LBB12_5
LBB12_4:
	movq	$0, -72(%rbp)
LBB12_5:
	movq	-32(%rbp), %rax
	movq	-24(%rbp), %rcx
	subq	%rcx, %rax
	movq	%rax, -80(%rbp)
	cmpq	$0, -80(%rbp)
	jle	LBB12_9
## %bb.6:
	movq	-16(%rbp), %rdi
	movq	-24(%rbp), %rsi
	movq	-80(%rbp), %rdx
	callq	__ZNSt3__115basic_streambufIcNS_11char_traitsIcEEE5sputnB6v15006EPKcl
	cmpq	-80(%rbp), %rax
	je	LBB12_8
## %bb.7:
	movq	$0, -16(%rbp)
	movq	-16(%rbp), %rax
	movq	%rax, -8(%rbp)
	jmp	LBB12_23
LBB12_8:
	jmp	LBB12_9
LBB12_9:
	cmpq	$0, -72(%rbp)
	jle	LBB12_18
## %bb.10:
	movq	-72(%rbp), %rsi
	movsbl	-49(%rbp), %edx
	leaq	-104(%rbp), %rdi
	movq	%rdi, -144(%rbp)                ## 8-byte Spill
	callq	__ZNSt3__112basic_stringIcNS_11char_traitsIcEENS_9allocatorIcEEEC1B6v15006Emc
	movq	-144(%rbp), %rdi                ## 8-byte Reload
	movq	-16(%rbp), %rax
	movq	%rax, -136(%rbp)                ## 8-byte Spill
	callq	__ZNKSt3__112basic_stringIcNS_11char_traitsIcEENS_9allocatorIcEEE4dataB6v15006Ev
	movq	-136(%rbp), %rdi                ## 8-byte Reload
	movq	%rax, %rsi
	movq	-72(%rbp), %rdx
Ltmp96:
	callq	__ZNSt3__115basic_streambufIcNS_11char_traitsIcEEE5sputnB6v15006EPKcl
Ltmp97:
	movq	%rax, -128(%rbp)                ## 8-byte Spill
	jmp	LBB12_11
LBB12_11:
	movq	-128(%rbp), %rax                ## 8-byte Reload
	cmpq	-72(%rbp), %rax
	je	LBB12_14
## %bb.12:
	movq	$0, -16(%rbp)
	movq	-16(%rbp), %rax
	movq	%rax, -8(%rbp)
	movl	$1, -120(%rbp)
	jmp	LBB12_15
LBB12_13:
Ltmp98:
	movq	%rax, %rcx
	movl	%edx, %eax
	movq	%rcx, -112(%rbp)
	movl	%eax, -116(%rbp)
Ltmp99:
	leaq	-104(%rbp), %rdi
	callq	__ZNSt3__112basic_stringIcNS_11char_traitsIcEENS_9allocatorIcEEED1Ev
Ltmp100:
	jmp	LBB12_17
LBB12_14:
	movl	$0, -120(%rbp)
LBB12_15:
	leaq	-104(%rbp), %rdi
	callq	__ZNSt3__112basic_stringIcNS_11char_traitsIcEENS_9allocatorIcEEED1Ev
	movl	-120(%rbp), %eax
	testl	%eax, %eax
	je	LBB12_16
	jmp	LBB12_27
LBB12_27:
	jmp	LBB12_23
LBB12_16:
	jmp	LBB12_18
LBB12_17:
	jmp	LBB12_24
LBB12_18:
	movq	-40(%rbp), %rax
	movq	-32(%rbp), %rcx
	subq	%rcx, %rax
	movq	%rax, -80(%rbp)
	cmpq	$0, -80(%rbp)
	jle	LBB12_22
## %bb.19:
	movq	-16(%rbp), %rdi
	movq	-32(%rbp), %rsi
	movq	-80(%rbp), %rdx
	callq	__ZNSt3__115basic_streambufIcNS_11char_traitsIcEEE5sputnB6v15006EPKcl
	cmpq	-80(%rbp), %rax
	je	LBB12_21
## %bb.20:
	movq	$0, -16(%rbp)
	movq	-16(%rbp), %rax
	movq	%rax, -8(%rbp)
	jmp	LBB12_23
LBB12_21:
	jmp	LBB12_22
LBB12_22:
	movq	-48(%rbp), %rdi
	xorl	%eax, %eax
	movl	%eax, %esi
	callq	__ZNSt3__18ios_base5widthB6v15006El
	movq	-16(%rbp), %rax
	movq	%rax, -8(%rbp)
LBB12_23:
	movq	-8(%rbp), %rax
	addq	$144, %rsp
	popq	%rbp
	retq
LBB12_24:
	movq	-112(%rbp), %rdi
	callq	__Unwind_Resume
LBB12_25:
Ltmp101:
	movq	%rax, %rdi
	callq	___clang_call_terminate
## %bb.26:
	ud2
Lfunc_end2:
	.cfi_endproc
	.section	__TEXT,__gcc_except_tab
	.p2align	2
GCC_except_table12:
Lexception2:
	.byte	255                             ## @LPStart Encoding = omit
	.byte	155                             ## @TType Encoding = indirect pcrel sdata4
	.uleb128 Lttbase2-Lttbaseref2
Lttbaseref2:
	.byte	1                               ## Call site Encoding = uleb128
	.uleb128 Lcst_end2-Lcst_begin2
Lcst_begin2:
	.uleb128 Lfunc_begin2-Lfunc_begin2      ## >> Call Site 1 <<
	.uleb128 Ltmp96-Lfunc_begin2            ##   Call between Lfunc_begin2 and Ltmp96
	.byte	0                               ##     has no landing pad
	.byte	0                               ##   On action: cleanup
	.uleb128 Ltmp96-Lfunc_begin2            ## >> Call Site 2 <<
	.uleb128 Ltmp97-Ltmp96                  ##   Call between Ltmp96 and Ltmp97
	.uleb128 Ltmp98-Lfunc_begin2            ##     jumps to Ltmp98
	.byte	0                               ##   On action: cleanup
	.uleb128 Ltmp99-Lfunc_begin2            ## >> Call Site 3 <<
	.uleb128 Ltmp100-Ltmp99                 ##   Call between Ltmp99 and Ltmp100
	.uleb128 Ltmp101-Lfunc_begin2           ##     jumps to Ltmp101
	.byte	1                               ##   On action: 1
	.uleb128 Ltmp100-Lfunc_begin2           ## >> Call Site 4 <<
	.uleb128 Lfunc_end2-Ltmp100             ##   Call between Ltmp100 and Lfunc_end2
	.byte	0                               ##     has no landing pad
	.byte	0                               ##   On action: cleanup
Lcst_end2:
	.byte	1                               ## >> Action Record 1 <<
                                        ##   Catch TypeInfo 1
	.byte	0                               ##   No further actions
	.p2align	2
                                        ## >> Catch TypeInfos <<
	.long	0                               ## TypeInfo 1
Lttbase2:
	.p2align	2
                                        ## -- End function
	.section	__TEXT,__text,regular,pure_instructions
	.private_extern	__ZNSt3__119ostreambuf_iteratorIcNS_11char_traitsIcEEEC1B6v15006ERNS_13basic_ostreamIcS2_EE ## -- Begin function _ZNSt3__119ostreambuf_iteratorIcNS_11char_traitsIcEEEC1B6v15006ERNS_13basic_ostreamIcS2_EE
	.globl	__ZNSt3__119ostreambuf_iteratorIcNS_11char_traitsIcEEEC1B6v15006ERNS_13basic_ostreamIcS2_EE
	.weak_def_can_be_hidden	__ZNSt3__119ostreambuf_iteratorIcNS_11char_traitsIcEEEC1B6v15006ERNS_13basic_ostreamIcS2_EE
	.p2align	4, 0x90
__ZNSt3__119ostreambuf_iteratorIcNS_11char_traitsIcEEEC1B6v15006ERNS_13basic_ostreamIcS2_EE: ## @_ZNSt3__119ostreambuf_iteratorIcNS_11char_traitsIcEEEC1B6v15006ERNS_13basic_ostreamIcS2_EE
	.cfi_startproc
## %bb.0:
	pushq	%rbp
	.cfi_def_cfa_offset 16
	.cfi_offset %rbp, -16
	movq	%rsp, %rbp
	.cfi_def_cfa_register %rbp
	subq	$16, %rsp
	movq	%rdi, -8(%rbp)
	movq	%rsi, -16(%rbp)
	movq	-8(%rbp), %rdi
	movq	-16(%rbp), %rsi
	callq	__ZNSt3__119ostreambuf_iteratorIcNS_11char_traitsIcEEEC2B6v15006ERNS_13basic_ostreamIcS2_EE
	addq	$16, %rsp
	popq	%rbp
	retq
	.cfi_endproc
                                        ## -- End function
	.private_extern	__ZNKSt3__18ios_base5flagsB6v15006Ev ## -- Begin function _ZNKSt3__18ios_base5flagsB6v15006Ev
	.globl	__ZNKSt3__18ios_base5flagsB6v15006Ev
	.weak_definition	__ZNKSt3__18ios_base5flagsB6v15006Ev
	.p2align	4, 0x90
__ZNKSt3__18ios_base5flagsB6v15006Ev:   ## @_ZNKSt3__18ios_base5flagsB6v15006Ev
	.cfi_startproc
## %bb.0:
	pushq	%rbp
	.cfi_def_cfa_offset 16
	.cfi_offset %rbp, -16
	movq	%rsp, %rbp
	.cfi_def_cfa_register %rbp
	movq	%rdi, -8(%rbp)
	movq	-8(%rbp), %rax
	movl	8(%rax), %eax
	popq	%rbp
	retq
	.cfi_endproc
                                        ## -- End function
	.private_extern	__ZNKSt3__19basic_iosIcNS_11char_traitsIcEEE4fillB6v15006Ev ## -- Begin function _ZNKSt3__19basic_iosIcNS_11char_traitsIcEEE4fillB6v15006Ev
	.globl	__ZNKSt3__19basic_iosIcNS_11char_traitsIcEEE4fillB6v15006Ev
	.weak_definition	__ZNKSt3__19basic_iosIcNS_11char_traitsIcEEE4fillB6v15006Ev
	.p2align	4, 0x90
__ZNKSt3__19basic_iosIcNS_11char_traitsIcEEE4fillB6v15006Ev: ## @_ZNKSt3__19basic_iosIcNS_11char_traitsIcEEE4fillB6v15006Ev
	.cfi_startproc
## %bb.0:
	pushq	%rbp
	.cfi_def_cfa_offset 16
	.cfi_offset %rbp, -16
	movq	%rsp, %rbp
	.cfi_def_cfa_register %rbp
	subq	$16, %rsp
	movq	%rdi, -8(%rbp)
	movq	-8(%rbp), %rax
	movq	%rax, -16(%rbp)                 ## 8-byte Spill
	callq	__ZNSt3__111char_traitsIcE3eofEv
	movl	%eax, %edi
	movq	-16(%rbp), %rax                 ## 8-byte Reload
	movl	144(%rax), %esi
	callq	__ZNSt3__111char_traitsIcE11eq_int_typeEii
	testb	$1, %al
	jne	LBB15_1
	jmp	LBB15_2
LBB15_1:
	movq	-16(%rbp), %rdi                 ## 8-byte Reload
	movl	$32, %esi
	callq	__ZNKSt3__19basic_iosIcNS_11char_traitsIcEEE5widenB6v15006Ec
	movb	%al, %cl
	movq	-16(%rbp), %rax                 ## 8-byte Reload
	movsbl	%cl, %ecx
	movl	%ecx, 144(%rax)
LBB15_2:
	movq	-16(%rbp), %rax                 ## 8-byte Reload
	movl	144(%rax), %eax
                                        ## kill: def $al killed $al killed $eax
	movsbl	%al, %eax
	addq	$16, %rsp
	popq	%rbp
	retq
	.cfi_endproc
                                        ## -- End function
	.private_extern	__ZNKSt3__119ostreambuf_iteratorIcNS_11char_traitsIcEEE6failedB6v15006Ev ## -- Begin function _ZNKSt3__119ostreambuf_iteratorIcNS_11char_traitsIcEEE6failedB6v15006Ev
	.globl	__ZNKSt3__119ostreambuf_iteratorIcNS_11char_traitsIcEEE6failedB6v15006Ev
	.weak_definition	__ZNKSt3__119ostreambuf_iteratorIcNS_11char_traitsIcEEE6failedB6v15006Ev
	.p2align	4, 0x90
__ZNKSt3__119ostreambuf_iteratorIcNS_11char_traitsIcEEE6failedB6v15006Ev: ## @_ZNKSt3__119ostreambuf_iteratorIcNS_11char_traitsIcEEE6failedB6v15006Ev
	.cfi_startproc
## %bb.0:
	pushq	%rbp
	.cfi_def_cfa_offset 16
	.cfi_offset %rbp, -16
	movq	%rsp, %rbp
	.cfi_def_cfa_register %rbp
	movq	%rdi, -8(%rbp)
	movq	-8(%rbp), %rax
	cmpq	$0, (%rax)
	sete	%al
	andb	$1, %al
	movzbl	%al, %eax
	popq	%rbp
	retq
	.cfi_endproc
                                        ## -- End function
	.private_extern	__ZNSt3__19basic_iosIcNS_11char_traitsIcEEE8setstateB6v15006Ej ## -- Begin function _ZNSt3__19basic_iosIcNS_11char_traitsIcEEE8setstateB6v15006Ej
	.globl	__ZNSt3__19basic_iosIcNS_11char_traitsIcEEE8setstateB6v15006Ej
	.weak_definition	__ZNSt3__19basic_iosIcNS_11char_traitsIcEEE8setstateB6v15006Ej
	.p2align	4, 0x90
__ZNSt3__19basic_iosIcNS_11char_traitsIcEEE8setstateB6v15006Ej: ## @_ZNSt3__19basic_iosIcNS_11char_traitsIcEEE8setstateB6v15006Ej
	.cfi_startproc
## %bb.0:
	pushq	%rbp
	.cfi_def_cfa_offset 16
	.cfi_offset %rbp, -16
	movq	%rsp, %rbp
	.cfi_def_cfa_register %rbp
	subq	$16, %rsp
	movq	%rdi, -8(%rbp)
	movl	%esi, -12(%rbp)
	movq	-8(%rbp), %rdi
	movl	-12(%rbp), %esi
	callq	__ZNSt3__18ios_base8setstateB6v15006Ej
	addq	$16, %rsp
	popq	%rbp
	retq
	.cfi_endproc
                                        ## -- End function
	.private_extern	__ZNKSt3__18ios_base5widthB6v15006Ev ## -- Begin function _ZNKSt3__18ios_base5widthB6v15006Ev
	.globl	__ZNKSt3__18ios_base5widthB6v15006Ev
	.weak_definition	__ZNKSt3__18ios_base5widthB6v15006Ev
	.p2align	4, 0x90
__ZNKSt3__18ios_base5widthB6v15006Ev:   ## @_ZNKSt3__18ios_base5widthB6v15006Ev
	.cfi_startproc
## %bb.0:
	pushq	%rbp
	.cfi_def_cfa_offset 16
	.cfi_offset %rbp, -16
	movq	%rsp, %rbp
	.cfi_def_cfa_register %rbp
	movq	%rdi, -8(%rbp)
	movq	-8(%rbp), %rax
	movq	24(%rax), %rax
	popq	%rbp
	retq
	.cfi_endproc
                                        ## -- End function
	.private_extern	__ZNSt3__115basic_streambufIcNS_11char_traitsIcEEE5sputnB6v15006EPKcl ## -- Begin function _ZNSt3__115basic_streambufIcNS_11char_traitsIcEEE5sputnB6v15006EPKcl
	.globl	__ZNSt3__115basic_streambufIcNS_11char_traitsIcEEE5sputnB6v15006EPKcl
	.weak_definition	__ZNSt3__115basic_streambufIcNS_11char_traitsIcEEE5sputnB6v15006EPKcl
	.p2align	4, 0x90
__ZNSt3__115basic_streambufIcNS_11char_traitsIcEEE5sputnB6v15006EPKcl: ## @_ZNSt3__115basic_streambufIcNS_11char_traitsIcEEE5sputnB6v15006EPKcl
	.cfi_startproc
## %bb.0:
	pushq	%rbp
	.cfi_def_cfa_offset 16
	.cfi_offset %rbp, -16
	movq	%rsp, %rbp
	.cfi_def_cfa_register %rbp
	subq	$32, %rsp
	movq	%rdi, -8(%rbp)
	movq	%rsi, -16(%rbp)
	movq	%rdx, -24(%rbp)
	movq	-8(%rbp), %rdi
	movq	-16(%rbp), %rsi
	movq	-24(%rbp), %rdx
	movq	(%rdi), %rax
	callq	*96(%rax)
	addq	$32, %rsp
	popq	%rbp
	retq
	.cfi_endproc
                                        ## -- End function
	.private_extern	__ZNSt3__112basic_stringIcNS_11char_traitsIcEENS_9allocatorIcEEEC1B6v15006Emc ## -- Begin function _ZNSt3__112basic_stringIcNS_11char_traitsIcEENS_9allocatorIcEEEC1B6v15006Emc
	.globl	__ZNSt3__112basic_stringIcNS_11char_traitsIcEENS_9allocatorIcEEEC1B6v15006Emc
	.weak_def_can_be_hidden	__ZNSt3__112basic_stringIcNS_11char_traitsIcEENS_9allocatorIcEEEC1B6v15006Emc
	.p2align	4, 0x90
__ZNSt3__112basic_stringIcNS_11char_traitsIcEENS_9allocatorIcEEEC1B6v15006Emc: ## @_ZNSt3__112basic_stringIcNS_11char_traitsIcEENS_9allocatorIcEEEC1B6v15006Emc
	.cfi_startproc
## %bb.0:
	pushq	%rbp
	.cfi_def_cfa_offset 16
	.cfi_offset %rbp, -16
	movq	%rsp, %rbp
	.cfi_def_cfa_register %rbp
	subq	$32, %rsp
	movb	%dl, %al
	movq	%rdi, -8(%rbp)
	movq	%rsi, -16(%rbp)
	movb	%al, -17(%rbp)
	movq	-8(%rbp), %rdi
	movq	-16(%rbp), %rsi
	movsbl	-17(%rbp), %edx
	callq	__ZNSt3__112basic_stringIcNS_11char_traitsIcEENS_9allocatorIcEEEC2B6v15006Emc
	addq	$32, %rsp
	popq	%rbp
	retq
	.cfi_endproc
                                        ## -- End function
	.private_extern	__ZNKSt3__112basic_stringIcNS_11char_traitsIcEENS_9allocatorIcEEE4dataB6v15006Ev ## -- Begin function _ZNKSt3__112basic_stringIcNS_11char_traitsIcEENS_9allocatorIcEEE4dataB6v15006Ev
	.globl	__ZNKSt3__112basic_stringIcNS_11char_traitsIcEENS_9allocatorIcEEE4dataB6v15006Ev
	.weak_definition	__ZNKSt3__112basic_stringIcNS_11char_traitsIcEENS_9allocatorIcEEE4dataB6v15006Ev
	.p2align	4, 0x90
__ZNKSt3__112basic_stringIcNS_11char_traitsIcEENS_9allocatorIcEEE4dataB6v15006Ev: ## @_ZNKSt3__112basic_stringIcNS_11char_traitsIcEENS_9allocatorIcEEE4dataB6v15006Ev
	.cfi_startproc
## %bb.0:
	pushq	%rbp
	.cfi_def_cfa_offset 16
	.cfi_offset %rbp, -16
	movq	%rsp, %rbp
	.cfi_def_cfa_register %rbp
	subq	$16, %rsp
	movq	%rdi, -8(%rbp)
	movq	-8(%rbp), %rdi
	callq	__ZNKSt3__112basic_stringIcNS_11char_traitsIcEENS_9allocatorIcEEE13__get_pointerB6v15006Ev
	movq	%rax, %rdi
	callq	__ZNSt3__112__to_addressB6v15006IKcEEPT_S3_
	addq	$16, %rsp
	popq	%rbp
	retq
	.cfi_endproc
                                        ## -- End function
	.private_extern	__ZNSt3__18ios_base5widthB6v15006El ## -- Begin function _ZNSt3__18ios_base5widthB6v15006El
	.globl	__ZNSt3__18ios_base5widthB6v15006El
	.weak_definition	__ZNSt3__18ios_base5widthB6v15006El
	.p2align	4, 0x90
__ZNSt3__18ios_base5widthB6v15006El:    ## @_ZNSt3__18ios_base5widthB6v15006El
	.cfi_startproc
## %bb.0:
	pushq	%rbp
	.cfi_def_cfa_offset 16
	.cfi_offset %rbp, -16
	movq	%rsp, %rbp
	.cfi_def_cfa_register %rbp
	movq	%rdi, -8(%rbp)
	movq	%rsi, -16(%rbp)
	movq	-8(%rbp), %rax
	movq	24(%rax), %rcx
	movq	%rcx, -24(%rbp)
	movq	-16(%rbp), %rcx
	movq	%rcx, 24(%rax)
	movq	-24(%rbp), %rax
	popq	%rbp
	retq
	.cfi_endproc
                                        ## -- End function
	.private_extern	__ZNSt3__112basic_stringIcNS_11char_traitsIcEENS_9allocatorIcEEEC2B6v15006Emc ## -- Begin function _ZNSt3__112basic_stringIcNS_11char_traitsIcEENS_9allocatorIcEEEC2B6v15006Emc
	.globl	__ZNSt3__112basic_stringIcNS_11char_traitsIcEENS_9allocatorIcEEEC2B6v15006Emc
	.weak_def_can_be_hidden	__ZNSt3__112basic_stringIcNS_11char_traitsIcEENS_9allocatorIcEEEC2B6v15006Emc
	.p2align	4, 0x90
__ZNSt3__112basic_stringIcNS_11char_traitsIcEENS_9allocatorIcEEEC2B6v15006Emc: ## @_ZNSt3__112basic_stringIcNS_11char_traitsIcEENS_9allocatorIcEEEC2B6v15006Emc
	.cfi_startproc
## %bb.0:
	pushq	%rbp
	.cfi_def_cfa_offset 16
	.cfi_offset %rbp, -16
	movq	%rsp, %rbp
	.cfi_def_cfa_register %rbp
	subq	$48, %rsp
	movb	%dl, %al
	movq	%rdi, -8(%rbp)
	movq	%rsi, -16(%rbp)
	movb	%al, -17(%rbp)
	movq	-8(%rbp), %rdi
	movq	%rdi, -40(%rbp)                 ## 8-byte Spill
	leaq	-24(%rbp), %rsi
	leaq	-32(%rbp), %rdx
	callq	__ZNSt3__117__compressed_pairINS_12basic_stringIcNS_11char_traitsIcEENS_9allocatorIcEEE5__repES5_EC1B6v15006INS_18__default_init_tagESA_EEOT_OT0_
	movq	-40(%rbp), %rdi                 ## 8-byte Reload
	movq	-16(%rbp), %rsi
	movsbl	-17(%rbp), %edx
	callq	__ZNSt3__112basic_stringIcNS_11char_traitsIcEENS_9allocatorIcEEE6__initEmc
	movq	-40(%rbp), %rdi                 ## 8-byte Reload
	callq	__ZNSt3__119__debug_db_insert_cB6v15006INS_12basic_stringIcNS_11char_traitsIcEENS_9allocatorIcEEEEEEvPT_
	addq	$48, %rsp
	popq	%rbp
	retq
	.cfi_endproc
                                        ## -- End function
	.globl	__ZNSt3__117__compressed_pairINS_12basic_stringIcNS_11char_traitsIcEENS_9allocatorIcEEE5__repES5_EC1B6v15006INS_18__default_init_tagESA_EEOT_OT0_ ## -- Begin function _ZNSt3__117__compressed_pairINS_12basic_stringIcNS_11char_traitsIcEENS_9allocatorIcEEE5__repES5_EC1B6v15006INS_18__default_init_tagESA_EEOT_OT0_
	.weak_def_can_be_hidden	__ZNSt3__117__compressed_pairINS_12basic_stringIcNS_11char_traitsIcEENS_9allocatorIcEEE5__repES5_EC1B6v15006INS_18__default_init_tagESA_EEOT_OT0_
	.p2align	4, 0x90
__ZNSt3__117__compressed_pairINS_12basic_stringIcNS_11char_traitsIcEENS_9allocatorIcEEE5__repES5_EC1B6v15006INS_18__default_init_tagESA_EEOT_OT0_: ## @_ZNSt3__117__compressed_pairINS_12basic_stringIcNS_11char_traitsIcEENS_9allocatorIcEEE5__repES5_EC1B6v15006INS_18__default_init_tagESA_EEOT_OT0_
	.cfi_startproc
## %bb.0:
	pushq	%rbp
	.cfi_def_cfa_offset 16
	.cfi_offset %rbp, -16
	movq	%rsp, %rbp
	.cfi_def_cfa_register %rbp
	subq	$32, %rsp
	movq	%rdi, -8(%rbp)
	movq	%rsi, -16(%rbp)
	movq	%rdx, -24(%rbp)
	movq	-8(%rbp), %rdi
	movq	-16(%rbp), %rsi
	movq	-24(%rbp), %rdx
	callq	__ZNSt3__117__compressed_pairINS_12basic_stringIcNS_11char_traitsIcEENS_9allocatorIcEEE5__repES5_EC2B6v15006INS_18__default_init_tagESA_EEOT_OT0_
	addq	$32, %rsp
	popq	%rbp
	retq
	.cfi_endproc
                                        ## -- End function
	.private_extern	__ZNSt3__119__debug_db_insert_cB6v15006INS_12basic_stringIcNS_11char_traitsIcEENS_9allocatorIcEEEEEEvPT_ ## -- Begin function _ZNSt3__119__debug_db_insert_cB6v15006INS_12basic_stringIcNS_11char_traitsIcEENS_9allocatorIcEEEEEEvPT_
	.globl	__ZNSt3__119__debug_db_insert_cB6v15006INS_12basic_stringIcNS_11char_traitsIcEENS_9allocatorIcEEEEEEvPT_
	.weak_definition	__ZNSt3__119__debug_db_insert_cB6v15006INS_12basic_stringIcNS_11char_traitsIcEENS_9allocatorIcEEEEEEvPT_
	.p2align	4, 0x90
__ZNSt3__119__debug_db_insert_cB6v15006INS_12basic_stringIcNS_11char_traitsIcEENS_9allocatorIcEEEEEEvPT_: ## @_ZNSt3__119__debug_db_insert_cB6v15006INS_12basic_stringIcNS_11char_traitsIcEENS_9allocatorIcEEEEEEvPT_
	.cfi_startproc
## %bb.0:
	pushq	%rbp
	.cfi_def_cfa_offset 16
	.cfi_offset %rbp, -16
	movq	%rsp, %rbp
	.cfi_def_cfa_register %rbp
	movq	%rdi, -8(%rbp)
	popq	%rbp
	retq
	.cfi_endproc
                                        ## -- End function
	.globl	__ZNSt3__117__compressed_pairINS_12basic_stringIcNS_11char_traitsIcEENS_9allocatorIcEEE5__repES5_EC2B6v15006INS_18__default_init_tagESA_EEOT_OT0_ ## -- Begin function _ZNSt3__117__compressed_pairINS_12basic_stringIcNS_11char_traitsIcEENS_9allocatorIcEEE5__repES5_EC2B6v15006INS_18__default_init_tagESA_EEOT_OT0_
	.weak_def_can_be_hidden	__ZNSt3__117__compressed_pairINS_12basic_stringIcNS_11char_traitsIcEENS_9allocatorIcEEE5__repES5_EC2B6v15006INS_18__default_init_tagESA_EEOT_OT0_
	.p2align	4, 0x90
__ZNSt3__117__compressed_pairINS_12basic_stringIcNS_11char_traitsIcEENS_9allocatorIcEEE5__repES5_EC2B6v15006INS_18__default_init_tagESA_EEOT_OT0_: ## @_ZNSt3__117__compressed_pairINS_12basic_stringIcNS_11char_traitsIcEENS_9allocatorIcEEE5__repES5_EC2B6v15006INS_18__default_init_tagESA_EEOT_OT0_
	.cfi_startproc
## %bb.0:
	pushq	%rbp
	.cfi_def_cfa_offset 16
	.cfi_offset %rbp, -16
	movq	%rsp, %rbp
	.cfi_def_cfa_register %rbp
	subq	$48, %rsp
	movq	%rdi, -8(%rbp)
	movq	%rsi, -16(%rbp)
	movq	%rdx, -24(%rbp)
	movq	-8(%rbp), %rdi
	movq	%rdi, -48(%rbp)                 ## 8-byte Spill
	callq	__ZNSt3__122__compressed_pair_elemINS_12basic_stringIcNS_11char_traitsIcEENS_9allocatorIcEEE5__repELi0ELb0EEC2B6v15006ENS_18__default_init_tagE
	movq	-48(%rbp), %rdi                 ## 8-byte Reload
	callq	__ZNSt3__122__compressed_pair_elemINS_9allocatorIcEELi1ELb1EEC2B6v15006ENS_18__default_init_tagE
	addq	$48, %rsp
	popq	%rbp
	retq
	.cfi_endproc
                                        ## -- End function
	.private_extern	__ZNSt3__122__compressed_pair_elemINS_12basic_stringIcNS_11char_traitsIcEENS_9allocatorIcEEE5__repELi0ELb0EEC2B6v15006ENS_18__default_init_tagE ## -- Begin function _ZNSt3__122__compressed_pair_elemINS_12basic_stringIcNS_11char_traitsIcEENS_9allocatorIcEEE5__repELi0ELb0EEC2B6v15006ENS_18__default_init_tagE
	.globl	__ZNSt3__122__compressed_pair_elemINS_12basic_stringIcNS_11char_traitsIcEENS_9allocatorIcEEE5__repELi0ELb0EEC2B6v15006ENS_18__default_init_tagE
	.weak_def_can_be_hidden	__ZNSt3__122__compressed_pair_elemINS_12basic_stringIcNS_11char_traitsIcEENS_9allocatorIcEEE5__repELi0ELb0EEC2B6v15006ENS_18__default_init_tagE
	.p2align	4, 0x90
__ZNSt3__122__compressed_pair_elemINS_12basic_stringIcNS_11char_traitsIcEENS_9allocatorIcEEE5__repELi0ELb0EEC2B6v15006ENS_18__default_init_tagE: ## @_ZNSt3__122__compressed_pair_elemINS_12basic_stringIcNS_11char_traitsIcEENS_9allocatorIcEEE5__repELi0ELb0EEC2B6v15006ENS_18__default_init_tagE
	.cfi_startproc
## %bb.0:
	pushq	%rbp
	.cfi_def_cfa_offset 16
	.cfi_offset %rbp, -16
	movq	%rsp, %rbp
	.cfi_def_cfa_register %rbp
	movq	%rdi, -16(%rbp)
	popq	%rbp
	retq
	.cfi_endproc
                                        ## -- End function
	.private_extern	__ZNSt3__122__compressed_pair_elemINS_9allocatorIcEELi1ELb1EEC2B6v15006ENS_18__default_init_tagE ## -- Begin function _ZNSt3__122__compressed_pair_elemINS_9allocatorIcEELi1ELb1EEC2B6v15006ENS_18__default_init_tagE
	.globl	__ZNSt3__122__compressed_pair_elemINS_9allocatorIcEELi1ELb1EEC2B6v15006ENS_18__default_init_tagE
	.weak_def_can_be_hidden	__ZNSt3__122__compressed_pair_elemINS_9allocatorIcEELi1ELb1EEC2B6v15006ENS_18__default_init_tagE
	.p2align	4, 0x90
__ZNSt3__122__compressed_pair_elemINS_9allocatorIcEELi1ELb1EEC2B6v15006ENS_18__default_init_tagE: ## @_ZNSt3__122__compressed_pair_elemINS_9allocatorIcEELi1ELb1EEC2B6v15006ENS_18__default_init_tagE
	.cfi_startproc
## %bb.0:
	pushq	%rbp
	.cfi_def_cfa_offset 16
	.cfi_offset %rbp, -16
	movq	%rsp, %rbp
	.cfi_def_cfa_register %rbp
	subq	$16, %rsp
	movq	%rdi, -16(%rbp)
	movq	-16(%rbp), %rdi
	callq	__ZNSt3__19allocatorIcEC2B6v15006Ev
	addq	$16, %rsp
	popq	%rbp
	retq
	.cfi_endproc
                                        ## -- End function
	.private_extern	__ZNSt3__19allocatorIcEC2B6v15006Ev ## -- Begin function _ZNSt3__19allocatorIcEC2B6v15006Ev
	.globl	__ZNSt3__19allocatorIcEC2B6v15006Ev
	.weak_def_can_be_hidden	__ZNSt3__19allocatorIcEC2B6v15006Ev
	.p2align	4, 0x90
__ZNSt3__19allocatorIcEC2B6v15006Ev:    ## @_ZNSt3__19allocatorIcEC2B6v15006Ev
	.cfi_startproc
## %bb.0:
	pushq	%rbp
	.cfi_def_cfa_offset 16
	.cfi_offset %rbp, -16
	movq	%rsp, %rbp
	.cfi_def_cfa_register %rbp
	subq	$16, %rsp
	movq	%rdi, -8(%rbp)
	movq	-8(%rbp), %rdi
	callq	__ZNSt3__116__non_trivial_ifILb1ENS_9allocatorIcEEEC2B6v15006Ev
	addq	$16, %rsp
	popq	%rbp
	retq
	.cfi_endproc
                                        ## -- End function
	.private_extern	__ZNSt3__116__non_trivial_ifILb1ENS_9allocatorIcEEEC2B6v15006Ev ## -- Begin function _ZNSt3__116__non_trivial_ifILb1ENS_9allocatorIcEEEC2B6v15006Ev
	.globl	__ZNSt3__116__non_trivial_ifILb1ENS_9allocatorIcEEEC2B6v15006Ev
	.weak_def_can_be_hidden	__ZNSt3__116__non_trivial_ifILb1ENS_9allocatorIcEEEC2B6v15006Ev
	.p2align	4, 0x90
__ZNSt3__116__non_trivial_ifILb1ENS_9allocatorIcEEEC2B6v15006Ev: ## @_ZNSt3__116__non_trivial_ifILb1ENS_9allocatorIcEEEC2B6v15006Ev
	.cfi_startproc
## %bb.0:
	pushq	%rbp
	.cfi_def_cfa_offset 16
	.cfi_offset %rbp, -16
	movq	%rsp, %rbp
	.cfi_def_cfa_register %rbp
	movq	%rdi, -8(%rbp)
	popq	%rbp
	retq
	.cfi_endproc
                                        ## -- End function
	.private_extern	__ZNSt3__112__to_addressB6v15006IKcEEPT_S3_ ## -- Begin function _ZNSt3__112__to_addressB6v15006IKcEEPT_S3_
	.globl	__ZNSt3__112__to_addressB6v15006IKcEEPT_S3_
	.weak_definition	__ZNSt3__112__to_addressB6v15006IKcEEPT_S3_
	.p2align	4, 0x90
__ZNSt3__112__to_addressB6v15006IKcEEPT_S3_: ## @_ZNSt3__112__to_addressB6v15006IKcEEPT_S3_
	.cfi_startproc
## %bb.0:
	pushq	%rbp
	.cfi_def_cfa_offset 16
	.cfi_offset %rbp, -16
	movq	%rsp, %rbp
	.cfi_def_cfa_register %rbp
	movq	%rdi, -8(%rbp)
	movq	-8(%rbp), %rax
	popq	%rbp
	retq
	.cfi_endproc
                                        ## -- End function
	.private_extern	__ZNKSt3__112basic_stringIcNS_11char_traitsIcEENS_9allocatorIcEEE13__get_pointerB6v15006Ev ## -- Begin function _ZNKSt3__112basic_stringIcNS_11char_traitsIcEENS_9allocatorIcEEE13__get_pointerB6v15006Ev
	.globl	__ZNKSt3__112basic_stringIcNS_11char_traitsIcEENS_9allocatorIcEEE13__get_pointerB6v15006Ev
	.weak_definition	__ZNKSt3__112basic_stringIcNS_11char_traitsIcEENS_9allocatorIcEEE13__get_pointerB6v15006Ev
	.p2align	4, 0x90
__ZNKSt3__112basic_stringIcNS_11char_traitsIcEENS_9allocatorIcEEE13__get_pointerB6v15006Ev: ## @_ZNKSt3__112basic_stringIcNS_11char_traitsIcEENS_9allocatorIcEEE13__get_pointerB6v15006Ev
	.cfi_startproc
## %bb.0:
	pushq	%rbp
	.cfi_def_cfa_offset 16
	.cfi_offset %rbp, -16
	movq	%rsp, %rbp
	.cfi_def_cfa_register %rbp
	subq	$32, %rsp
	movq	%rdi, -8(%rbp)
	movq	-8(%rbp), %rdi
	movq	%rdi, -16(%rbp)                 ## 8-byte Spill
	callq	__ZNKSt3__112basic_stringIcNS_11char_traitsIcEENS_9allocatorIcEEE9__is_longB6v15006Ev
	testb	$1, %al
	jne	LBB32_1
	jmp	LBB32_2
LBB32_1:
	movq	-16(%rbp), %rdi                 ## 8-byte Reload
	callq	__ZNKSt3__112basic_stringIcNS_11char_traitsIcEENS_9allocatorIcEEE18__get_long_pointerB6v15006Ev
	movq	%rax, -24(%rbp)                 ## 8-byte Spill
	jmp	LBB32_3
LBB32_2:
	movq	-16(%rbp), %rdi                 ## 8-byte Reload
	callq	__ZNKSt3__112basic_stringIcNS_11char_traitsIcEENS_9allocatorIcEEE19__get_short_pointerB6v15006Ev
	movq	%rax, -24(%rbp)                 ## 8-byte Spill
LBB32_3:
	movq	-24(%rbp), %rax                 ## 8-byte Reload
	addq	$32, %rsp
	popq	%rbp
	retq
	.cfi_endproc
                                        ## -- End function
	.private_extern	__ZNKSt3__112basic_stringIcNS_11char_traitsIcEENS_9allocatorIcEEE9__is_longB6v15006Ev ## -- Begin function _ZNKSt3__112basic_stringIcNS_11char_traitsIcEENS_9allocatorIcEEE9__is_longB6v15006Ev
	.globl	__ZNKSt3__112basic_stringIcNS_11char_traitsIcEENS_9allocatorIcEEE9__is_longB6v15006Ev
	.weak_definition	__ZNKSt3__112basic_stringIcNS_11char_traitsIcEENS_9allocatorIcEEE9__is_longB6v15006Ev
	.p2align	4, 0x90
__ZNKSt3__112basic_stringIcNS_11char_traitsIcEENS_9allocatorIcEEE9__is_longB6v15006Ev: ## @_ZNKSt3__112basic_stringIcNS_11char_traitsIcEENS_9allocatorIcEEE9__is_longB6v15006Ev
	.cfi_startproc
## %bb.0:
	pushq	%rbp
	.cfi_def_cfa_offset 16
	.cfi_offset %rbp, -16
	movq	%rsp, %rbp
	.cfi_def_cfa_register %rbp
	subq	$32, %rsp
	movq	%rdi, -16(%rbp)
	movq	-16(%rbp), %rax
	movq	%rax, -24(%rbp)                 ## 8-byte Spill
	callq	__ZNSt3__130__libcpp_is_constant_evaluatedEv
	testb	$1, %al
	jne	LBB33_1
	jmp	LBB33_2
LBB33_1:
	movb	$1, -1(%rbp)
	jmp	LBB33_3
LBB33_2:
	movq	-24(%rbp), %rdi                 ## 8-byte Reload
	callq	__ZNKSt3__117__compressed_pairINS_12basic_stringIcNS_11char_traitsIcEENS_9allocatorIcEEE5__repES5_E5firstB6v15006Ev
	movb	(%rax), %al
	andb	$1, %al
	cmpb	$0, %al
	setne	%al
	andb	$1, %al
	movb	%al, -1(%rbp)
LBB33_3:
	movb	-1(%rbp), %al
	andb	$1, %al
	movzbl	%al, %eax
	addq	$32, %rsp
	popq	%rbp
	retq
	.cfi_endproc
                                        ## -- End function
	.private_extern	__ZNKSt3__112basic_stringIcNS_11char_traitsIcEENS_9allocatorIcEEE18__get_long_pointerB6v15006Ev ## -- Begin function _ZNKSt3__112basic_stringIcNS_11char_traitsIcEENS_9allocatorIcEEE18__get_long_pointerB6v15006Ev
	.globl	__ZNKSt3__112basic_stringIcNS_11char_traitsIcEENS_9allocatorIcEEE18__get_long_pointerB6v15006Ev
	.weak_definition	__ZNKSt3__112basic_stringIcNS_11char_traitsIcEENS_9allocatorIcEEE18__get_long_pointerB6v15006Ev
	.p2align	4, 0x90
__ZNKSt3__112basic_stringIcNS_11char_traitsIcEENS_9allocatorIcEEE18__get_long_pointerB6v15006Ev: ## @_ZNKSt3__112basic_stringIcNS_11char_traitsIcEENS_9allocatorIcEEE18__get_long_pointerB6v15006Ev
	.cfi_startproc
## %bb.0:
	pushq	%rbp
	.cfi_def_cfa_offset 16
	.cfi_offset %rbp, -16
	movq	%rsp, %rbp
	.cfi_def_cfa_register %rbp
	subq	$16, %rsp
	movq	%rdi, -8(%rbp)
	movq	-8(%rbp), %rdi
	callq	__ZNKSt3__117__compressed_pairINS_12basic_stringIcNS_11char_traitsIcEENS_9allocatorIcEEE5__repES5_E5firstB6v15006Ev
	movq	16(%rax), %rax
	addq	$16, %rsp
	popq	%rbp
	retq
	.cfi_endproc
                                        ## -- End function
	.private_extern	__ZNKSt3__112basic_stringIcNS_11char_traitsIcEENS_9allocatorIcEEE19__get_short_pointerB6v15006Ev ## -- Begin function _ZNKSt3__112basic_stringIcNS_11char_traitsIcEENS_9allocatorIcEEE19__get_short_pointerB6v15006Ev
	.globl	__ZNKSt3__112basic_stringIcNS_11char_traitsIcEENS_9allocatorIcEEE19__get_short_pointerB6v15006Ev
	.weak_definition	__ZNKSt3__112basic_stringIcNS_11char_traitsIcEENS_9allocatorIcEEE19__get_short_pointerB6v15006Ev
	.p2align	4, 0x90
__ZNKSt3__112basic_stringIcNS_11char_traitsIcEENS_9allocatorIcEEE19__get_short_pointerB6v15006Ev: ## @_ZNKSt3__112basic_stringIcNS_11char_traitsIcEENS_9allocatorIcEEE19__get_short_pointerB6v15006Ev
	.cfi_startproc
## %bb.0:
	pushq	%rbp
	.cfi_def_cfa_offset 16
	.cfi_offset %rbp, -16
	movq	%rsp, %rbp
	.cfi_def_cfa_register %rbp
	subq	$16, %rsp
	movq	%rdi, -8(%rbp)
	movq	-8(%rbp), %rdi
	callq	__ZNKSt3__117__compressed_pairINS_12basic_stringIcNS_11char_traitsIcEENS_9allocatorIcEEE5__repES5_E5firstB6v15006Ev
	movq	%rax, %rdi
	addq	$1, %rdi
	callq	__ZNSt3__114pointer_traitsIPKcE10pointer_toB6v15006ERS1_
	addq	$16, %rsp
	popq	%rbp
	retq
	.cfi_endproc
                                        ## -- End function
	.globl	__ZNSt3__130__libcpp_is_constant_evaluatedEv ## -- Begin function _ZNSt3__130__libcpp_is_constant_evaluatedEv
	.weak_definition	__ZNSt3__130__libcpp_is_constant_evaluatedEv
	.p2align	4, 0x90
__ZNSt3__130__libcpp_is_constant_evaluatedEv: ## @_ZNSt3__130__libcpp_is_constant_evaluatedEv
	.cfi_startproc
## %bb.0:
	pushq	%rbp
	.cfi_def_cfa_offset 16
	.cfi_offset %rbp, -16
	movq	%rsp, %rbp
	.cfi_def_cfa_register %rbp
	xorl	%eax, %eax
                                        ## kill: def $al killed $al killed $eax
	andb	$1, %al
	movzbl	%al, %eax
	popq	%rbp
	retq
	.cfi_endproc
                                        ## -- End function
	.private_extern	__ZNKSt3__117__compressed_pairINS_12basic_stringIcNS_11char_traitsIcEENS_9allocatorIcEEE5__repES5_E5firstB6v15006Ev ## -- Begin function _ZNKSt3__117__compressed_pairINS_12basic_stringIcNS_11char_traitsIcEENS_9allocatorIcEEE5__repES5_E5firstB6v15006Ev
	.globl	__ZNKSt3__117__compressed_pairINS_12basic_stringIcNS_11char_traitsIcEENS_9allocatorIcEEE5__repES5_E5firstB6v15006Ev
	.weak_definition	__ZNKSt3__117__compressed_pairINS_12basic_stringIcNS_11char_traitsIcEENS_9allocatorIcEEE5__repES5_E5firstB6v15006Ev
	.p2align	4, 0x90
__ZNKSt3__117__compressed_pairINS_12basic_stringIcNS_11char_traitsIcEENS_9allocatorIcEEE5__repES5_E5firstB6v15006Ev: ## @_ZNKSt3__117__compressed_pairINS_12basic_stringIcNS_11char_traitsIcEENS_9allocatorIcEEE5__repES5_E5firstB6v15006Ev
	.cfi_startproc
## %bb.0:
	pushq	%rbp
	.cfi_def_cfa_offset 16
	.cfi_offset %rbp, -16
	movq	%rsp, %rbp
	.cfi_def_cfa_register %rbp
	subq	$16, %rsp
	movq	%rdi, -8(%rbp)
	movq	-8(%rbp), %rdi
	callq	__ZNKSt3__122__compressed_pair_elemINS_12basic_stringIcNS_11char_traitsIcEENS_9allocatorIcEEE5__repELi0ELb0EE5__getB6v15006Ev
	addq	$16, %rsp
	popq	%rbp
	retq
	.cfi_endproc
                                        ## -- End function
	.private_extern	__ZNKSt3__122__compressed_pair_elemINS_12basic_stringIcNS_11char_traitsIcEENS_9allocatorIcEEE5__repELi0ELb0EE5__getB6v15006Ev ## -- Begin function _ZNKSt3__122__compressed_pair_elemINS_12basic_stringIcNS_11char_traitsIcEENS_9allocatorIcEEE5__repELi0ELb0EE5__getB6v15006Ev
	.globl	__ZNKSt3__122__compressed_pair_elemINS_12basic_stringIcNS_11char_traitsIcEENS_9allocatorIcEEE5__repELi0ELb0EE5__getB6v15006Ev
	.weak_definition	__ZNKSt3__122__compressed_pair_elemINS_12basic_stringIcNS_11char_traitsIcEENS_9allocatorIcEEE5__repELi0ELb0EE5__getB6v15006Ev
	.p2align	4, 0x90
__ZNKSt3__122__compressed_pair_elemINS_12basic_stringIcNS_11char_traitsIcEENS_9allocatorIcEEE5__repELi0ELb0EE5__getB6v15006Ev: ## @_ZNKSt3__122__compressed_pair_elemINS_12basic_stringIcNS_11char_traitsIcEENS_9allocatorIcEEE5__repELi0ELb0EE5__getB6v15006Ev
	.cfi_startproc
## %bb.0:
	pushq	%rbp
	.cfi_def_cfa_offset 16
	.cfi_offset %rbp, -16
	movq	%rsp, %rbp
	.cfi_def_cfa_register %rbp
	movq	%rdi, -8(%rbp)
	movq	-8(%rbp), %rax
	popq	%rbp
	retq
	.cfi_endproc
                                        ## -- End function
	.private_extern	__ZNSt3__114pointer_traitsIPKcE10pointer_toB6v15006ERS1_ ## -- Begin function _ZNSt3__114pointer_traitsIPKcE10pointer_toB6v15006ERS1_
	.globl	__ZNSt3__114pointer_traitsIPKcE10pointer_toB6v15006ERS1_
	.weak_definition	__ZNSt3__114pointer_traitsIPKcE10pointer_toB6v15006ERS1_
	.p2align	4, 0x90
__ZNSt3__114pointer_traitsIPKcE10pointer_toB6v15006ERS1_: ## @_ZNSt3__114pointer_traitsIPKcE10pointer_toB6v15006ERS1_
	.cfi_startproc
## %bb.0:
	pushq	%rbp
	.cfi_def_cfa_offset 16
	.cfi_offset %rbp, -16
	movq	%rsp, %rbp
	.cfi_def_cfa_register %rbp
	movq	%rdi, -8(%rbp)
	movq	-8(%rbp), %rax
	popq	%rbp
	retq
	.cfi_endproc
                                        ## -- End function
	.private_extern	__ZNSt3__119ostreambuf_iteratorIcNS_11char_traitsIcEEEC2B6v15006ERNS_13basic_ostreamIcS2_EE ## -- Begin function _ZNSt3__119ostreambuf_iteratorIcNS_11char_traitsIcEEEC2B6v15006ERNS_13basic_ostreamIcS2_EE
	.globl	__ZNSt3__119ostreambuf_iteratorIcNS_11char_traitsIcEEEC2B6v15006ERNS_13basic_ostreamIcS2_EE
	.weak_def_can_be_hidden	__ZNSt3__119ostreambuf_iteratorIcNS_11char_traitsIcEEEC2B6v15006ERNS_13basic_ostreamIcS2_EE
	.p2align	4, 0x90
__ZNSt3__119ostreambuf_iteratorIcNS_11char_traitsIcEEEC2B6v15006ERNS_13basic_ostreamIcS2_EE: ## @_ZNSt3__119ostreambuf_iteratorIcNS_11char_traitsIcEEEC2B6v15006ERNS_13basic_ostreamIcS2_EE
Lfunc_begin3:
	.cfi_startproc
	.cfi_personality 155, ___gxx_personality_v0
	.cfi_lsda 16, Lexception3
## %bb.0:
	pushq	%rbp
	.cfi_def_cfa_offset 16
	.cfi_offset %rbp, -16
	movq	%rsp, %rbp
	.cfi_def_cfa_register %rbp
	subq	$48, %rsp
	movq	%rdi, -8(%rbp)
	movq	%rsi, -16(%rbp)
	movq	-8(%rbp), %rax
	movq	%rax, -48(%rbp)                 ## 8-byte Spill
	movq	-16(%rbp), %rdi
	movq	(%rdi), %rax
	movq	-24(%rax), %rax
	addq	%rax, %rdi
Ltmp102:
	callq	__ZNKSt3__19basic_iosIcNS_11char_traitsIcEEE5rdbufB6v15006Ev
Ltmp103:
	movq	%rax, -40(%rbp)                 ## 8-byte Spill
	jmp	LBB40_1
LBB40_1:
	movq	-48(%rbp), %rax                 ## 8-byte Reload
	movq	-40(%rbp), %rcx                 ## 8-byte Reload
	movq	%rcx, (%rax)
	addq	$48, %rsp
	popq	%rbp
	retq
LBB40_2:
Ltmp104:
	movq	%rax, %rcx
	movl	%edx, %eax
	movq	%rcx, -24(%rbp)
	movl	%eax, -28(%rbp)
## %bb.3:
	movq	-24(%rbp), %rdi
	callq	___cxa_call_unexpected
Lfunc_end3:
	.cfi_endproc
	.section	__TEXT,__gcc_except_tab
	.p2align	2
GCC_except_table40:
Lexception3:
	.byte	255                             ## @LPStart Encoding = omit
	.byte	155                             ## @TType Encoding = indirect pcrel sdata4
	.uleb128 Lttbase3-Lttbaseref3
Lttbaseref3:
	.byte	1                               ## Call site Encoding = uleb128
	.uleb128 Lcst_end3-Lcst_begin3
Lcst_begin3:
	.uleb128 Ltmp102-Lfunc_begin3           ## >> Call Site 1 <<
	.uleb128 Ltmp103-Ltmp102                ##   Call between Ltmp102 and Ltmp103
	.uleb128 Ltmp104-Lfunc_begin3           ##     jumps to Ltmp104
	.byte	1                               ##   On action: 1
	.uleb128 Ltmp103-Lfunc_begin3           ## >> Call Site 2 <<
	.uleb128 Lfunc_end3-Ltmp103             ##   Call between Ltmp103 and Lfunc_end3
	.byte	0                               ##     has no landing pad
	.byte	0                               ##   On action: cleanup
Lcst_end3:
	.byte	127                             ## >> Action Record 1 <<
                                        ##   Filter TypeInfo -1
	.byte	0                               ##   No further actions
	.p2align	2
Lttbase3:
                                        ## >> Filter TypeInfos <<
	.byte	0
	.p2align	2
                                        ## -- End function
	.section	__TEXT,__text,regular,pure_instructions
	.private_extern	__ZNKSt3__19basic_iosIcNS_11char_traitsIcEEE5rdbufB6v15006Ev ## -- Begin function _ZNKSt3__19basic_iosIcNS_11char_traitsIcEEE5rdbufB6v15006Ev
	.globl	__ZNKSt3__19basic_iosIcNS_11char_traitsIcEEE5rdbufB6v15006Ev
	.weak_definition	__ZNKSt3__19basic_iosIcNS_11char_traitsIcEEE5rdbufB6v15006Ev
	.p2align	4, 0x90
__ZNKSt3__19basic_iosIcNS_11char_traitsIcEEE5rdbufB6v15006Ev: ## @_ZNKSt3__19basic_iosIcNS_11char_traitsIcEEE5rdbufB6v15006Ev
	.cfi_startproc
## %bb.0:
	pushq	%rbp
	.cfi_def_cfa_offset 16
	.cfi_offset %rbp, -16
	movq	%rsp, %rbp
	.cfi_def_cfa_register %rbp
	subq	$16, %rsp
	movq	%rdi, -8(%rbp)
	movq	-8(%rbp), %rdi
	callq	__ZNKSt3__18ios_base5rdbufB6v15006Ev
	addq	$16, %rsp
	popq	%rbp
	retq
	.cfi_endproc
                                        ## -- End function
	.private_extern	__ZNKSt3__18ios_base5rdbufB6v15006Ev ## -- Begin function _ZNKSt3__18ios_base5rdbufB6v15006Ev
	.globl	__ZNKSt3__18ios_base5rdbufB6v15006Ev
	.weak_definition	__ZNKSt3__18ios_base5rdbufB6v15006Ev
	.p2align	4, 0x90
__ZNKSt3__18ios_base5rdbufB6v15006Ev:   ## @_ZNKSt3__18ios_base5rdbufB6v15006Ev
	.cfi_startproc
## %bb.0:
	pushq	%rbp
	.cfi_def_cfa_offset 16
	.cfi_offset %rbp, -16
	movq	%rsp, %rbp
	.cfi_def_cfa_register %rbp
	movq	%rdi, -8(%rbp)
	movq	-8(%rbp), %rax
	movq	40(%rax), %rax
	popq	%rbp
	retq
	.cfi_endproc
                                        ## -- End function
	.globl	__ZNSt3__111char_traitsIcE11eq_int_typeEii ## -- Begin function _ZNSt3__111char_traitsIcE11eq_int_typeEii
	.weak_definition	__ZNSt3__111char_traitsIcE11eq_int_typeEii
	.p2align	4, 0x90
__ZNSt3__111char_traitsIcE11eq_int_typeEii: ## @_ZNSt3__111char_traitsIcE11eq_int_typeEii
	.cfi_startproc
## %bb.0:
	pushq	%rbp
	.cfi_def_cfa_offset 16
	.cfi_offset %rbp, -16
	movq	%rsp, %rbp
	.cfi_def_cfa_register %rbp
	movl	%edi, -4(%rbp)
	movl	%esi, -8(%rbp)
	movl	-4(%rbp), %eax
	cmpl	-8(%rbp), %eax
	sete	%al
	andb	$1, %al
	movzbl	%al, %eax
	popq	%rbp
	retq
	.cfi_endproc
                                        ## -- End function
	.globl	__ZNSt3__111char_traitsIcE3eofEv ## -- Begin function _ZNSt3__111char_traitsIcE3eofEv
	.weak_definition	__ZNSt3__111char_traitsIcE3eofEv
	.p2align	4, 0x90
__ZNSt3__111char_traitsIcE3eofEv:       ## @_ZNSt3__111char_traitsIcE3eofEv
	.cfi_startproc
## %bb.0:
	pushq	%rbp
	.cfi_def_cfa_offset 16
	.cfi_offset %rbp, -16
	movq	%rsp, %rbp
	.cfi_def_cfa_register %rbp
	movl	$4294967295, %eax               ## imm = 0xFFFFFFFF
	popq	%rbp
	retq
	.cfi_endproc
                                        ## -- End function
	.private_extern	__ZNKSt3__19basic_iosIcNS_11char_traitsIcEEE5widenB6v15006Ec ## -- Begin function _ZNKSt3__19basic_iosIcNS_11char_traitsIcEEE5widenB6v15006Ec
	.globl	__ZNKSt3__19basic_iosIcNS_11char_traitsIcEEE5widenB6v15006Ec
	.weak_definition	__ZNKSt3__19basic_iosIcNS_11char_traitsIcEEE5widenB6v15006Ec
	.p2align	4, 0x90
__ZNKSt3__19basic_iosIcNS_11char_traitsIcEEE5widenB6v15006Ec: ## @_ZNKSt3__19basic_iosIcNS_11char_traitsIcEEE5widenB6v15006Ec
Lfunc_begin4:
	.cfi_startproc
	.cfi_personality 155, ___gxx_personality_v0
	.cfi_lsda 16, Lexception4
## %bb.0:
	pushq	%rbp
	.cfi_def_cfa_offset 16
	.cfi_offset %rbp, -16
	movq	%rsp, %rbp
	.cfi_def_cfa_register %rbp
	subq	$64, %rsp
	movb	%sil, %al
	movq	%rdi, -8(%rbp)
	movb	%al, -9(%rbp)
	movq	-8(%rbp), %rsi
	leaq	-24(%rbp), %rdi
	movq	%rdi, -56(%rbp)                 ## 8-byte Spill
	callq	__ZNKSt3__18ios_base6getlocEv
	movq	-56(%rbp), %rdi                 ## 8-byte Reload
Ltmp105:
	callq	__ZNSt3__19use_facetB6v15006INS_5ctypeIcEEEERKT_RKNS_6localeE
Ltmp106:
	movq	%rax, -48(%rbp)                 ## 8-byte Spill
	jmp	LBB45_1
LBB45_1:
	movq	-48(%rbp), %rdi                 ## 8-byte Reload
	movsbl	-9(%rbp), %esi
Ltmp107:
	callq	__ZNKSt3__15ctypeIcE5widenB6v15006Ec
Ltmp108:
	movb	%al, -57(%rbp)                  ## 1-byte Spill
	jmp	LBB45_2
LBB45_2:
	leaq	-24(%rbp), %rdi
	callq	__ZNSt3__16localeD1Ev
	movb	-57(%rbp), %al                  ## 1-byte Reload
	movsbl	%al, %eax
	addq	$64, %rsp
	popq	%rbp
	retq
LBB45_3:
Ltmp109:
	movq	%rax, %rcx
	movl	%edx, %eax
	movq	%rcx, -32(%rbp)
	movl	%eax, -36(%rbp)
Ltmp110:
	leaq	-24(%rbp), %rdi
	callq	__ZNSt3__16localeD1Ev
Ltmp111:
	jmp	LBB45_4
LBB45_4:
	jmp	LBB45_5
LBB45_5:
	movq	-32(%rbp), %rdi
	callq	__Unwind_Resume
LBB45_6:
Ltmp112:
	movq	%rax, %rdi
	callq	___clang_call_terminate
Lfunc_end4:
	.cfi_endproc
	.section	__TEXT,__gcc_except_tab
	.p2align	2
GCC_except_table45:
Lexception4:
	.byte	255                             ## @LPStart Encoding = omit
	.byte	155                             ## @TType Encoding = indirect pcrel sdata4
	.uleb128 Lttbase4-Lttbaseref4
Lttbaseref4:
	.byte	1                               ## Call site Encoding = uleb128
	.uleb128 Lcst_end4-Lcst_begin4
Lcst_begin4:
	.uleb128 Lfunc_begin4-Lfunc_begin4      ## >> Call Site 1 <<
	.uleb128 Ltmp105-Lfunc_begin4           ##   Call between Lfunc_begin4 and Ltmp105
	.byte	0                               ##     has no landing pad
	.byte	0                               ##   On action: cleanup
	.uleb128 Ltmp105-Lfunc_begin4           ## >> Call Site 2 <<
	.uleb128 Ltmp108-Ltmp105                ##   Call between Ltmp105 and Ltmp108
	.uleb128 Ltmp109-Lfunc_begin4           ##     jumps to Ltmp109
	.byte	0                               ##   On action: cleanup
	.uleb128 Ltmp108-Lfunc_begin4           ## >> Call Site 3 <<
	.uleb128 Ltmp110-Ltmp108                ##   Call between Ltmp108 and Ltmp110
	.byte	0                               ##     has no landing pad
	.byte	0                               ##   On action: cleanup
	.uleb128 Ltmp110-Lfunc_begin4           ## >> Call Site 4 <<
	.uleb128 Ltmp111-Ltmp110                ##   Call between Ltmp110 and Ltmp111
	.uleb128 Ltmp112-Lfunc_begin4           ##     jumps to Ltmp112
	.byte	1                               ##   On action: 1
	.uleb128 Ltmp111-Lfunc_begin4           ## >> Call Site 5 <<
	.uleb128 Lfunc_end4-Ltmp111             ##   Call between Ltmp111 and Lfunc_end4
	.byte	0                               ##     has no landing pad
	.byte	0                               ##   On action: cleanup
Lcst_end4:
	.byte	1                               ## >> Action Record 1 <<
                                        ##   Catch TypeInfo 1
	.byte	0                               ##   No further actions
	.p2align	2
                                        ## >> Catch TypeInfos <<
	.long	0                               ## TypeInfo 1
Lttbase4:
	.p2align	2
                                        ## -- End function
	.section	__TEXT,__text,regular,pure_instructions
	.private_extern	__ZNSt3__19use_facetB6v15006INS_5ctypeIcEEEERKT_RKNS_6localeE ## -- Begin function _ZNSt3__19use_facetB6v15006INS_5ctypeIcEEEERKT_RKNS_6localeE
	.globl	__ZNSt3__19use_facetB6v15006INS_5ctypeIcEEEERKT_RKNS_6localeE
	.weak_definition	__ZNSt3__19use_facetB6v15006INS_5ctypeIcEEEERKT_RKNS_6localeE
	.p2align	4, 0x90
__ZNSt3__19use_facetB6v15006INS_5ctypeIcEEEERKT_RKNS_6localeE: ## @_ZNSt3__19use_facetB6v15006INS_5ctypeIcEEEERKT_RKNS_6localeE
	.cfi_startproc
## %bb.0:
	pushq	%rbp
	.cfi_def_cfa_offset 16
	.cfi_offset %rbp, -16
	movq	%rsp, %rbp
	.cfi_def_cfa_register %rbp
	subq	$16, %rsp
	movq	%rdi, -8(%rbp)
	movq	-8(%rbp), %rdi
	movq	__ZNSt3__15ctypeIcE2idE@GOTPCREL(%rip), %rsi
	callq	__ZNKSt3__16locale9use_facetERNS0_2idE
	addq	$16, %rsp
	popq	%rbp
	retq
	.cfi_endproc
                                        ## -- End function
	.private_extern	__ZNKSt3__15ctypeIcE5widenB6v15006Ec ## -- Begin function _ZNKSt3__15ctypeIcE5widenB6v15006Ec
	.globl	__ZNKSt3__15ctypeIcE5widenB6v15006Ec
	.weak_definition	__ZNKSt3__15ctypeIcE5widenB6v15006Ec
	.p2align	4, 0x90
__ZNKSt3__15ctypeIcE5widenB6v15006Ec:   ## @_ZNKSt3__15ctypeIcE5widenB6v15006Ec
	.cfi_startproc
## %bb.0:
	pushq	%rbp
	.cfi_def_cfa_offset 16
	.cfi_offset %rbp, -16
	movq	%rsp, %rbp
	.cfi_def_cfa_register %rbp
	subq	$16, %rsp
	movb	%sil, %al
	movq	%rdi, -8(%rbp)
	movb	%al, -9(%rbp)
	movq	-8(%rbp), %rdi
	movb	-9(%rbp), %cl
	movq	(%rdi), %rax
	movsbl	%cl, %esi
	callq	*56(%rax)
	movsbl	%al, %eax
	addq	$16, %rsp
	popq	%rbp
	retq
	.cfi_endproc
                                        ## -- End function
	.private_extern	__ZNSt3__18ios_base8setstateB6v15006Ej ## -- Begin function _ZNSt3__18ios_base8setstateB6v15006Ej
	.globl	__ZNSt3__18ios_base8setstateB6v15006Ej
	.weak_definition	__ZNSt3__18ios_base8setstateB6v15006Ej
	.p2align	4, 0x90
__ZNSt3__18ios_base8setstateB6v15006Ej: ## @_ZNSt3__18ios_base8setstateB6v15006Ej
	.cfi_startproc
## %bb.0:
	pushq	%rbp
	.cfi_def_cfa_offset 16
	.cfi_offset %rbp, -16
	movq	%rsp, %rbp
	.cfi_def_cfa_register %rbp
	subq	$16, %rsp
	movq	%rdi, -8(%rbp)
	movl	%esi, -12(%rbp)
	movq	-8(%rbp), %rdi
	movl	32(%rdi), %esi
	orl	-12(%rbp), %esi
	callq	__ZNSt3__18ios_base5clearEj
	addq	$16, %rsp
	popq	%rbp
	retq
	.cfi_endproc
                                        ## -- End function
	.globl	__ZNSt3__112basic_stringIcNS_11char_traitsIcEENS_9allocatorIcEEEC2B6v15006IDnEEPKc ## -- Begin function _ZNSt3__112basic_stringIcNS_11char_traitsIcEENS_9allocatorIcEEEC2B6v15006IDnEEPKc
	.weak_def_can_be_hidden	__ZNSt3__112basic_stringIcNS_11char_traitsIcEENS_9allocatorIcEEEC2B6v15006IDnEEPKc
	.p2align	4, 0x90
__ZNSt3__112basic_stringIcNS_11char_traitsIcEENS_9allocatorIcEEEC2B6v15006IDnEEPKc: ## @_ZNSt3__112basic_stringIcNS_11char_traitsIcEENS_9allocatorIcEEEC2B6v15006IDnEEPKc
	.cfi_startproc
## %bb.0:
	pushq	%rbp
	.cfi_def_cfa_offset 16
	.cfi_offset %rbp, -16
	movq	%rsp, %rbp
	.cfi_def_cfa_register %rbp
	subq	$48, %rsp
	movq	%rdi, -8(%rbp)
	movq	%rsi, -16(%rbp)
	movq	-8(%rbp), %rdi
	movq	%rdi, -40(%rbp)                 ## 8-byte Spill
	leaq	-24(%rbp), %rsi
	leaq	-32(%rbp), %rdx
	callq	__ZNSt3__117__compressed_pairINS_12basic_stringIcNS_11char_traitsIcEENS_9allocatorIcEEE5__repES5_EC1B6v15006INS_18__default_init_tagESA_EEOT_OT0_
	movq	-16(%rbp), %rax
	movq	%rax, -48(%rbp)                 ## 8-byte Spill
	movq	-16(%rbp), %rdi
	callq	__ZNSt3__111char_traitsIcE6lengthEPKc
	movq	-48(%rbp), %rsi                 ## 8-byte Reload
	movq	-40(%rbp), %rdi                 ## 8-byte Reload
	movq	%rax, %rdx
	callq	__ZNSt3__112basic_stringIcNS_11char_traitsIcEENS_9allocatorIcEEE6__initEPKcm
	movq	-40(%rbp), %rdi                 ## 8-byte Reload
	callq	__ZNSt3__119__debug_db_insert_cB6v15006INS_12basic_stringIcNS_11char_traitsIcEENS_9allocatorIcEEEEEEvPT_
	addq	$48, %rsp
	popq	%rbp
	retq
	.cfi_endproc
                                        ## -- End function
	.private_extern	__ZNKSt3__112basic_stringIcNS_11char_traitsIcEENS_9allocatorIcEEE4sizeB6v15006Ev ## -- Begin function _ZNKSt3__112basic_stringIcNS_11char_traitsIcEENS_9allocatorIcEEE4sizeB6v15006Ev
	.globl	__ZNKSt3__112basic_stringIcNS_11char_traitsIcEENS_9allocatorIcEEE4sizeB6v15006Ev
	.weak_definition	__ZNKSt3__112basic_stringIcNS_11char_traitsIcEENS_9allocatorIcEEE4sizeB6v15006Ev
	.p2align	4, 0x90
__ZNKSt3__112basic_stringIcNS_11char_traitsIcEENS_9allocatorIcEEE4sizeB6v15006Ev: ## @_ZNKSt3__112basic_stringIcNS_11char_traitsIcEENS_9allocatorIcEEE4sizeB6v15006Ev
	.cfi_startproc
## %bb.0:
	pushq	%rbp
	.cfi_def_cfa_offset 16
	.cfi_offset %rbp, -16
	movq	%rsp, %rbp
	.cfi_def_cfa_register %rbp
	subq	$32, %rsp
	movq	%rdi, -8(%rbp)
	movq	-8(%rbp), %rdi
	movq	%rdi, -16(%rbp)                 ## 8-byte Spill
	callq	__ZNKSt3__112basic_stringIcNS_11char_traitsIcEENS_9allocatorIcEEE9__is_longB6v15006Ev
	testb	$1, %al
	jne	LBB50_1
	jmp	LBB50_2
LBB50_1:
	movq	-16(%rbp), %rdi                 ## 8-byte Reload
	callq	__ZNKSt3__112basic_stringIcNS_11char_traitsIcEENS_9allocatorIcEEE15__get_long_sizeB6v15006Ev
	movq	%rax, -24(%rbp)                 ## 8-byte Spill
	jmp	LBB50_3
LBB50_2:
	movq	-16(%rbp), %rdi                 ## 8-byte Reload
	callq	__ZNKSt3__112basic_stringIcNS_11char_traitsIcEENS_9allocatorIcEEE16__get_short_sizeB6v15006Ev
	movq	%rax, -24(%rbp)                 ## 8-byte Spill
LBB50_3:
	movq	-24(%rbp), %rax                 ## 8-byte Reload
	addq	$32, %rsp
	popq	%rbp
	retq
	.cfi_endproc
                                        ## -- End function
	.private_extern	__ZNKSt3__112basic_stringIcNS_11char_traitsIcEENS_9allocatorIcEEE15__get_long_sizeB6v15006Ev ## -- Begin function _ZNKSt3__112basic_stringIcNS_11char_traitsIcEENS_9allocatorIcEEE15__get_long_sizeB6v15006Ev
	.globl	__ZNKSt3__112basic_stringIcNS_11char_traitsIcEENS_9allocatorIcEEE15__get_long_sizeB6v15006Ev
	.weak_definition	__ZNKSt3__112basic_stringIcNS_11char_traitsIcEENS_9allocatorIcEEE15__get_long_sizeB6v15006Ev
	.p2align	4, 0x90
__ZNKSt3__112basic_stringIcNS_11char_traitsIcEENS_9allocatorIcEEE15__get_long_sizeB6v15006Ev: ## @_ZNKSt3__112basic_stringIcNS_11char_traitsIcEENS_9allocatorIcEEE15__get_long_sizeB6v15006Ev
	.cfi_startproc
## %bb.0:
	pushq	%rbp
	.cfi_def_cfa_offset 16
	.cfi_offset %rbp, -16
	movq	%rsp, %rbp
	.cfi_def_cfa_register %rbp
	subq	$16, %rsp
	movq	%rdi, -8(%rbp)
	movq	-8(%rbp), %rdi
	callq	__ZNKSt3__117__compressed_pairINS_12basic_stringIcNS_11char_traitsIcEENS_9allocatorIcEEE5__repES5_E5firstB6v15006Ev
	movq	8(%rax), %rax
	addq	$16, %rsp
	popq	%rbp
	retq
	.cfi_endproc
                                        ## -- End function
	.private_extern	__ZNKSt3__112basic_stringIcNS_11char_traitsIcEENS_9allocatorIcEEE16__get_short_sizeB6v15006Ev ## -- Begin function _ZNKSt3__112basic_stringIcNS_11char_traitsIcEENS_9allocatorIcEEE16__get_short_sizeB6v15006Ev
	.globl	__ZNKSt3__112basic_stringIcNS_11char_traitsIcEENS_9allocatorIcEEE16__get_short_sizeB6v15006Ev
	.weak_definition	__ZNKSt3__112basic_stringIcNS_11char_traitsIcEENS_9allocatorIcEEE16__get_short_sizeB6v15006Ev
	.p2align	4, 0x90
__ZNKSt3__112basic_stringIcNS_11char_traitsIcEENS_9allocatorIcEEE16__get_short_sizeB6v15006Ev: ## @_ZNKSt3__112basic_stringIcNS_11char_traitsIcEENS_9allocatorIcEEE16__get_short_sizeB6v15006Ev
	.cfi_startproc
## %bb.0:
	pushq	%rbp
	.cfi_def_cfa_offset 16
	.cfi_offset %rbp, -16
	movq	%rsp, %rbp
	.cfi_def_cfa_register %rbp
	subq	$16, %rsp
	movq	%rdi, -8(%rbp)
	movq	-8(%rbp), %rdi
	callq	__ZNKSt3__117__compressed_pairINS_12basic_stringIcNS_11char_traitsIcEENS_9allocatorIcEEE5__repES5_E5firstB6v15006Ev
	movb	(%rax), %al
	shrb	$1, %al
	movzbl	%al, %eax
                                        ## kill: def $rax killed $eax
	addq	$16, %rsp
	popq	%rbp
	retq
	.cfi_endproc
                                        ## -- End function
	.section	__TEXT,__cstring,cstring_literals
L_.str:                                 ## @.str
	.asciz	"on est dans printRef"

L_.str.1:                               ## @.str.1
	.asciz	"sizeof(Student&) est : "

L_.str.2:                               ## @.str.2
	.asciz	"sizeof(refS1) est : "

L_.str.3:                               ## @.str.3
	.asciz	"lnyamets"

L_.str.4:                               ## @.str.4
	.asciz	"ynyamets"

L_.str.5:                               ## @.str.5
	.asciz	"sizeof(s1) est : "

L_.str.6:                               ## @.str.6
	.asciz	"sizeof(s2) est : "

L_.str.7:                               ## @.str.7
	.asciz	"sizeof(student *) est : "

L_.str.8:                               ## @.str.8
	.asciz	"bobo"

L_.str.9:                               ## @.str.9
	.asciz	"lnyamets est : "

L_.str.10:                              ## @.str.10
	.asciz	"ynyamest est : "

.subsections_via_symbols
